Archive member included to satisfy reference by file (symbol)

NetLib/libwchnet.a(eth_api.o)
                              build/eth_driver.o (WCHNET_PeriodicHandle)
NetLib/libwchnet.a(ipcheck.o)
                              NetLib/libwchnet.a(eth_api.o) (IPCheckParaInit)
NetLib/libwchnet.a(net_dhcp.o)
                              NetLib/libwchnet.a(eth_api.o) (DHCPCtrl)
NetLib/libwchnet.a(net_dns.o)
                              NetLib/libwchnet.a(eth_api.o) (DNSInf)
NetLib/libwchnet.a(socket.o)  NetLib/libwchnet.a(net_dhcp.o) (ErrorEncode)
NetLib/libwchnet.a(etharp.o)  NetLib/libwchnet.a(eth_api.o) (etharp_tmr)
NetLib/libwchnet.a(ethernetif.o)
                              NetLib/libwchnet.a(eth_api.o) (ethernetif_input)
NetLib/libwchnet.a(inet.o)    NetLib/libwchnet.a(socket.o) (inet_ntoa)
NetLib/libwchnet.a(ip.o)      NetLib/libwchnet.a(etharp.o) (ip_input)
NetLib/libwchnet.a(ip_addr.o)
                              NetLib/libwchnet.a(socket.o) (ip_addr_isbroadcast)
NetLib/libwchnet.a(ip_frag.o)
                              NetLib/libwchnet.a(eth_api.o) (ip_reass_tmr)
NetLib/libwchnet.a(dhcp.o)    NetLib/libwchnet.a(net_dhcp.o) (dhcp_arp_reply)
NetLib/libwchnet.a(dns.o)     NetLib/libwchnet.a(dhcp.o) (dns_setserver)
NetLib/libwchnet.a(init.o)    NetLib/libwchnet.a(ethernetif.o) (lwip_init)
NetLib/libwchnet.a(mem.o)     NetLib/libwchnet.a(init.o) (mem_init)
NetLib/libwchnet.a(memp.o)    NetLib/libwchnet.a(init.o) (memp_init)
NetLib/libwchnet.a(netif.o)   NetLib/libwchnet.a(dhcp.o) (netif_set_ipaddr)
NetLib/libwchnet.a(pbuf.o)    NetLib/libwchnet.a(socket.o) (pbuf_header)
NetLib/libwchnet.a(raw.o)     NetLib/libwchnet.a(ip.o) (raw_input)
NetLib/libwchnet.a(tcp.o)     NetLib/libwchnet.a(socket.o) (tcp_bind)
NetLib/libwchnet.a(tcp_in.o)  NetLib/libwchnet.a(ip.o) (tcp_input)
NetLib/libwchnet.a(tcp_out.o)
                              NetLib/libwchnet.a(tcp.o) (tcp_enqueue)
NetLib/libwchnet.a(udp.o)     NetLib/libwchnet.a(ip.o) (udp_input)
NetLib/libwchnet.a(icmp.o)    NetLib/libwchnet.a(ip.o) (icmp_input)
NetLib/libwchnet.a(inet_chksum.o)
                              NetLib/libwchnet.a(tcp_in.o) (inet_chksum_pseudo)
e:/program/mounriver/mounriver_studio/toolchain/risc-v embedded gcc/bin/../lib/gcc/riscv-none-embed/8.2.0/rv32ecxw/ilp32e\libgcc.a(save-restore.o)
                              build/main.o (__riscv_save_2)
e:/program/mounriver/mounriver_studio/toolchain/risc-v embedded gcc/bin/../lib/gcc/riscv-none-embed/8.2.0/rv32ecxw/ilp32e\libgcc.a(muldi3.o)
                              build/system_ch32v30x.o (__mulsi3)
e:/program/mounriver/mounriver_studio/toolchain/risc-v embedded gcc/bin/../lib/gcc/riscv-none-embed/8.2.0/rv32ecxw/ilp32e\libgcc.a(div.o)
                              build/ch32v30x_adc.o (__divsi3)
e:/program/mounriver/mounriver_studio/toolchain/risc-v embedded gcc/bin/../lib/gcc/riscv-none-embed/8.2.0/../../../../riscv-none-embed/lib/rv32ecxw/ilp32e\libg_nano.a(lib_a-atexit.o)
                              build/startup_ch32v30x_D8C.o (atexit)
e:/program/mounriver/mounriver_studio/toolchain/risc-v embedded gcc/bin/../lib/gcc/riscv-none-embed/8.2.0/../../../../riscv-none-embed/lib/rv32ecxw/ilp32e\libg_nano.a(lib_a-atoi.o)
                              build/HTTPS.o (atoi)
e:/program/mounriver/mounriver_studio/toolchain/risc-v embedded gcc/bin/../lib/gcc/riscv-none-embed/8.2.0/../../../../riscv-none-embed/lib/rv32ecxw/ilp32e\libg_nano.a(lib_a-fini.o)
                              build/startup_ch32v30x_D8C.o (__libc_fini_array)
e:/program/mounriver/mounriver_studio/toolchain/risc-v embedded gcc/bin/../lib/gcc/riscv-none-embed/8.2.0/../../../../riscv-none-embed/lib/rv32ecxw/ilp32e\libg_nano.a(lib_a-init.o)
                              build/startup_ch32v30x_D8C.o (__libc_init_array)
e:/program/mounriver/mounriver_studio/toolchain/risc-v embedded gcc/bin/../lib/gcc/riscv-none-embed/8.2.0/../../../../riscv-none-embed/lib/rv32ecxw/ilp32e\libg_nano.a(lib_a-memcpy.o)
                              build/main.o (memcpy)
e:/program/mounriver/mounriver_studio/toolchain/risc-v embedded gcc/bin/../lib/gcc/riscv-none-embed/8.2.0/../../../../riscv-none-embed/lib/rv32ecxw/ilp32e\libg_nano.a(lib_a-memset.o)
                              build/main.o (memset)
e:/program/mounriver/mounriver_studio/toolchain/risc-v embedded gcc/bin/../lib/gcc/riscv-none-embed/8.2.0/../../../../riscv-none-embed/lib/rv32ecxw/ilp32e\libg_nano.a(lib_a-printf.o)
                              build/main.o (printf)
e:/program/mounriver/mounriver_studio/toolchain/risc-v embedded gcc/bin/../lib/gcc/riscv-none-embed/8.2.0/../../../../riscv-none-embed/lib/rv32ecxw/ilp32e\libg_nano.a(lib_a-putchar.o)
                              build/main.o (putchar)
e:/program/mounriver/mounriver_studio/toolchain/risc-v embedded gcc/bin/../lib/gcc/riscv-none-embed/8.2.0/../../../../riscv-none-embed/lib/rv32ecxw/ilp32e\libg_nano.a(lib_a-puts.o)
                              build/main.o (puts)
e:/program/mounriver/mounriver_studio/toolchain/risc-v embedded gcc/bin/../lib/gcc/riscv-none-embed/8.2.0/../../../../riscv-none-embed/lib/rv32ecxw/ilp32e\libg_nano.a(lib_a-sprintf.o)
                              build/HTTPS.o (sprintf)
e:/program/mounriver/mounriver_studio/toolchain/risc-v embedded gcc/bin/../lib/gcc/riscv-none-embed/8.2.0/../../../../riscv-none-embed/lib/rv32ecxw/ilp32e\libg_nano.a(lib_a-strcmp.o)
                              build/HTTPS.o (strcmp)
e:/program/mounriver/mounriver_studio/toolchain/risc-v embedded gcc/bin/../lib/gcc/riscv-none-embed/8.2.0/../../../../riscv-none-embed/lib/rv32ecxw/ilp32e\libg_nano.a(lib_a-strcpy.o)
                              build/HTTPS.o (strcpy)
e:/program/mounriver/mounriver_studio/toolchain/risc-v embedded gcc/bin/../lib/gcc/riscv-none-embed/8.2.0/../../../../riscv-none-embed/lib/rv32ecxw/ilp32e\libg_nano.a(lib_a-strlen.o)
                              build/HTTPS.o (strlen)
e:/program/mounriver/mounriver_studio/toolchain/risc-v embedded gcc/bin/../lib/gcc/riscv-none-embed/8.2.0/../../../../riscv-none-embed/lib/rv32ecxw/ilp32e\libg_nano.a(lib_a-strstr.o)
                              build/HTTPS.o (strstr)
e:/program/mounriver/mounriver_studio/toolchain/risc-v embedded gcc/bin/../lib/gcc/riscv-none-embed/8.2.0/../../../../riscv-none-embed/lib/rv32ecxw/ilp32e\libg_nano.a(lib_a-strtok.o)
                              build/HTTPS.o (strtok)
e:/program/mounriver/mounriver_studio/toolchain/risc-v embedded gcc/bin/../lib/gcc/riscv-none-embed/8.2.0/../../../../riscv-none-embed/lib/rv32ecxw/ilp32e\libg_nano.a(lib_a-strtok_r.o)
                              e:/program/mounriver/mounriver_studio/toolchain/risc-v embedded gcc/bin/../lib/gcc/riscv-none-embed/8.2.0/../../../../riscv-none-embed/lib/rv32ecxw/ilp32e\libg_nano.a(lib_a-strtok.o) (__strtok_r)
e:/program/mounriver/mounriver_studio/toolchain/risc-v embedded gcc/bin/../lib/gcc/riscv-none-embed/8.2.0/../../../../riscv-none-embed/lib/rv32ecxw/ilp32e\libg_nano.a(lib_a-strtol.o)
                              e:/program/mounriver/mounriver_studio/toolchain/risc-v embedded gcc/bin/../lib/gcc/riscv-none-embed/8.2.0/../../../../riscv-none-embed/lib/rv32ecxw/ilp32e\libg_nano.a(lib_a-atoi.o) (_strtol_r)
e:/program/mounriver/mounriver_studio/toolchain/risc-v embedded gcc/bin/../lib/gcc/riscv-none-embed/8.2.0/../../../../riscv-none-embed/lib/rv32ecxw/ilp32e\libg_nano.a(lib_a-wbuf.o)
                              e:/program/mounriver/mounriver_studio/toolchain/risc-v embedded gcc/bin/../lib/gcc/riscv-none-embed/8.2.0/../../../../riscv-none-embed/lib/rv32ecxw/ilp32e\libg_nano.a(lib_a-puts.o) (__swbuf_r)
e:/program/mounriver/mounriver_studio/toolchain/risc-v embedded gcc/bin/../lib/gcc/riscv-none-embed/8.2.0/../../../../riscv-none-embed/lib/rv32ecxw/ilp32e\libg_nano.a(lib_a-wsetup.o)
                              e:/program/mounriver/mounriver_studio/toolchain/risc-v embedded gcc/bin/../lib/gcc/riscv-none-embed/8.2.0/../../../../riscv-none-embed/lib/rv32ecxw/ilp32e\libg_nano.a(lib_a-puts.o) (__swsetup_r)
e:/program/mounriver/mounriver_studio/toolchain/risc-v embedded gcc/bin/../lib/gcc/riscv-none-embed/8.2.0/../../../../riscv-none-embed/lib/rv32ecxw/ilp32e\libg_nano.a(lib_a-__atexit.o)
                              e:/program/mounriver/mounriver_studio/toolchain/risc-v embedded gcc/bin/../lib/gcc/riscv-none-embed/8.2.0/../../../../riscv-none-embed/lib/rv32ecxw/ilp32e\libg_nano.a(lib_a-atexit.o) (__register_exitproc)
e:/program/mounriver/mounriver_studio/toolchain/risc-v embedded gcc/bin/../lib/gcc/riscv-none-embed/8.2.0/../../../../riscv-none-embed/lib/rv32ecxw/ilp32e\libg_nano.a(lib_a-__call_atexit.o)
                              e:/program/mounriver/mounriver_studio/toolchain/risc-v embedded gcc/bin/../lib/gcc/riscv-none-embed/8.2.0/../../../../riscv-none-embed/lib/rv32ecxw/ilp32e\libg_nano.a(lib_a-__atexit.o) (__call_exitprocs)
e:/program/mounriver/mounriver_studio/toolchain/risc-v embedded gcc/bin/../lib/gcc/riscv-none-embed/8.2.0/../../../../riscv-none-embed/lib/rv32ecxw/ilp32e\libg_nano.a(lib_a-fflush.o)
                              e:/program/mounriver/mounriver_studio/toolchain/risc-v embedded gcc/bin/../lib/gcc/riscv-none-embed/8.2.0/../../../../riscv-none-embed/lib/rv32ecxw/ilp32e\libg_nano.a(lib_a-wbuf.o) (_fflush_r)
e:/program/mounriver/mounriver_studio/toolchain/risc-v embedded gcc/bin/../lib/gcc/riscv-none-embed/8.2.0/../../../../riscv-none-embed/lib/rv32ecxw/ilp32e\libg_nano.a(lib_a-findfp.o)
                              e:/program/mounriver/mounriver_studio/toolchain/risc-v embedded gcc/bin/../lib/gcc/riscv-none-embed/8.2.0/../../../../riscv-none-embed/lib/rv32ecxw/ilp32e\libg_nano.a(lib_a-printf.o) (__sinit)
e:/program/mounriver/mounriver_studio/toolchain/risc-v embedded gcc/bin/../lib/gcc/riscv-none-embed/8.2.0/../../../../riscv-none-embed/lib/rv32ecxw/ilp32e\libg_nano.a(lib_a-fwalk.o)
                              e:/program/mounriver/mounriver_studio/toolchain/risc-v embedded gcc/bin/../lib/gcc/riscv-none-embed/8.2.0/../../../../riscv-none-embed/lib/rv32ecxw/ilp32e\libg_nano.a(lib_a-findfp.o) (_fwalk)
e:/program/mounriver/mounriver_studio/toolchain/risc-v embedded gcc/bin/../lib/gcc/riscv-none-embed/8.2.0/../../../../riscv-none-embed/lib/rv32ecxw/ilp32e\libg_nano.a(lib_a-impure.o)
                              e:/program/mounriver/mounriver_studio/toolchain/risc-v embedded gcc/bin/../lib/gcc/riscv-none-embed/8.2.0/../../../../riscv-none-embed/lib/rv32ecxw/ilp32e\libg_nano.a(lib_a-fflush.o) (_global_impure_ptr)
e:/program/mounriver/mounriver_studio/toolchain/risc-v embedded gcc/bin/../lib/gcc/riscv-none-embed/8.2.0/../../../../riscv-none-embed/lib/rv32ecxw/ilp32e\libg_nano.a(lib_a-locale.o)
                              e:/program/mounriver/mounriver_studio/toolchain/risc-v embedded gcc/bin/../lib/gcc/riscv-none-embed/8.2.0/../../../../riscv-none-embed/lib/rv32ecxw/ilp32e\libg_nano.a(lib_a-strtol.o) (__locale_ctype_ptr_l)
e:/program/mounriver/mounriver_studio/toolchain/risc-v embedded gcc/bin/../lib/gcc/riscv-none-embed/8.2.0/../../../../riscv-none-embed/lib/rv32ecxw/ilp32e\libg_nano.a(lib_a-makebuf.o)
                              e:/program/mounriver/mounriver_studio/toolchain/risc-v embedded gcc/bin/../lib/gcc/riscv-none-embed/8.2.0/../../../../riscv-none-embed/lib/rv32ecxw/ilp32e\libg_nano.a(lib_a-wsetup.o) (__smakebuf_r)
e:/program/mounriver/mounriver_studio/toolchain/risc-v embedded gcc/bin/../lib/gcc/riscv-none-embed/8.2.0/../../../../riscv-none-embed/lib/rv32ecxw/ilp32e\libg_nano.a(lib_a-malloc.o)
                              e:/program/mounriver/mounriver_studio/toolchain/risc-v embedded gcc/bin/../lib/gcc/riscv-none-embed/8.2.0/../../../../riscv-none-embed/lib/rv32ecxw/ilp32e\libg_nano.a(lib_a-strtok.o) (malloc)
e:/program/mounriver/mounriver_studio/toolchain/risc-v embedded gcc/bin/../lib/gcc/riscv-none-embed/8.2.0/../../../../riscv-none-embed/lib/rv32ecxw/ilp32e\libg_nano.a(lib_a-mbtowc_r.o)
                              e:/program/mounriver/mounriver_studio/toolchain/risc-v embedded gcc/bin/../lib/gcc/riscv-none-embed/8.2.0/../../../../riscv-none-embed/lib/rv32ecxw/ilp32e\libg_nano.a(lib_a-locale.o) (__ascii_mbtowc)
e:/program/mounriver/mounriver_studio/toolchain/risc-v embedded gcc/bin/../lib/gcc/riscv-none-embed/8.2.0/../../../../riscv-none-embed/lib/rv32ecxw/ilp32e\libg_nano.a(lib_a-nano-freer.o)
                              e:/program/mounriver/mounriver_studio/toolchain/risc-v embedded gcc/bin/../lib/gcc/riscv-none-embed/8.2.0/../../../../riscv-none-embed/lib/rv32ecxw/ilp32e\libg_nano.a(lib_a-wsetup.o) (_free_r)
e:/program/mounriver/mounriver_studio/toolchain/risc-v embedded gcc/bin/../lib/gcc/riscv-none-embed/8.2.0/../../../../riscv-none-embed/lib/rv32ecxw/ilp32e\libg_nano.a(lib_a-nano-mallocr.o)
                              e:/program/mounriver/mounriver_studio/toolchain/risc-v embedded gcc/bin/../lib/gcc/riscv-none-embed/8.2.0/../../../../riscv-none-embed/lib/rv32ecxw/ilp32e\libg_nano.a(lib_a-findfp.o) (_malloc_r)
e:/program/mounriver/mounriver_studio/toolchain/risc-v embedded gcc/bin/../lib/gcc/riscv-none-embed/8.2.0/../../../../riscv-none-embed/lib/rv32ecxw/ilp32e\libg_nano.a(lib_a-nano-svfprintf.o)
                              e:/program/mounriver/mounriver_studio/toolchain/risc-v embedded gcc/bin/../lib/gcc/riscv-none-embed/8.2.0/../../../../riscv-none-embed/lib/rv32ecxw/ilp32e\libg_nano.a(lib_a-sprintf.o) (_svfprintf_r)
e:/program/mounriver/mounriver_studio/toolchain/risc-v embedded gcc/bin/../lib/gcc/riscv-none-embed/8.2.0/../../../../riscv-none-embed/lib/rv32ecxw/ilp32e\libg_nano.a(lib_a-nano-vfprintf.o)
                              e:/program/mounriver/mounriver_studio/toolchain/risc-v embedded gcc/bin/../lib/gcc/riscv-none-embed/8.2.0/../../../../riscv-none-embed/lib/rv32ecxw/ilp32e\libg_nano.a(lib_a-printf.o) (_vfprintf_r)
e:/program/mounriver/mounriver_studio/toolchain/risc-v embedded gcc/bin/../lib/gcc/riscv-none-embed/8.2.0/../../../../riscv-none-embed/lib/rv32ecxw/ilp32e\libg_nano.a(lib_a-nano-vfprintf_i.o)
                              e:/program/mounriver/mounriver_studio/toolchain/risc-v embedded gcc/bin/../lib/gcc/riscv-none-embed/8.2.0/../../../../riscv-none-embed/lib/rv32ecxw/ilp32e\libg_nano.a(lib_a-nano-svfprintf.o) (_printf_i)
e:/program/mounriver/mounriver_studio/toolchain/risc-v embedded gcc/bin/../lib/gcc/riscv-none-embed/8.2.0/../../../../riscv-none-embed/lib/rv32ecxw/ilp32e\libg_nano.a(lib_a-putc.o)
                              e:/program/mounriver/mounriver_studio/toolchain/risc-v embedded gcc/bin/../lib/gcc/riscv-none-embed/8.2.0/../../../../riscv-none-embed/lib/rv32ecxw/ilp32e\libg_nano.a(lib_a-putchar.o) (_putc_r)
e:/program/mounriver/mounriver_studio/toolchain/risc-v embedded gcc/bin/../lib/gcc/riscv-none-embed/8.2.0/../../../../riscv-none-embed/lib/rv32ecxw/ilp32e\libg_nano.a(lib_a-sbrkr.o)
                              e:/program/mounriver/mounriver_studio/toolchain/risc-v embedded gcc/bin/../lib/gcc/riscv-none-embed/8.2.0/../../../../riscv-none-embed/lib/rv32ecxw/ilp32e\libg_nano.a(lib_a-nano-mallocr.o) (_sbrk_r)
e:/program/mounriver/mounriver_studio/toolchain/risc-v embedded gcc/bin/../lib/gcc/riscv-none-embed/8.2.0/../../../../riscv-none-embed/lib/rv32ecxw/ilp32e\libg_nano.a(lib_a-stdio.o)
                              e:/program/mounriver/mounriver_studio/toolchain/risc-v embedded gcc/bin/../lib/gcc/riscv-none-embed/8.2.0/../../../../riscv-none-embed/lib/rv32ecxw/ilp32e\libg_nano.a(lib_a-findfp.o) (__sread)
e:/program/mounriver/mounriver_studio/toolchain/risc-v embedded gcc/bin/../lib/gcc/riscv-none-embed/8.2.0/../../../../riscv-none-embed/lib/rv32ecxw/ilp32e\libg_nano.a(lib_a-wctomb_r.o)
                              e:/program/mounriver/mounriver_studio/toolchain/risc-v embedded gcc/bin/../lib/gcc/riscv-none-embed/8.2.0/../../../../riscv-none-embed/lib/rv32ecxw/ilp32e\libg_nano.a(lib_a-locale.o) (__ascii_wctomb)
e:/program/mounriver/mounriver_studio/toolchain/risc-v embedded gcc/bin/../lib/gcc/riscv-none-embed/8.2.0/../../../../riscv-none-embed/lib/rv32ecxw/ilp32e\libg_nano.a(lib_a-writer.o)
                              e:/program/mounriver/mounriver_studio/toolchain/risc-v embedded gcc/bin/../lib/gcc/riscv-none-embed/8.2.0/../../../../riscv-none-embed/lib/rv32ecxw/ilp32e\libg_nano.a(lib_a-stdio.o) (_write_r)
e:/program/mounriver/mounriver_studio/toolchain/risc-v embedded gcc/bin/../lib/gcc/riscv-none-embed/8.2.0/../../../../riscv-none-embed/lib/rv32ecxw/ilp32e\libg_nano.a(lib_a-closer.o)
                              e:/program/mounriver/mounriver_studio/toolchain/risc-v embedded gcc/bin/../lib/gcc/riscv-none-embed/8.2.0/../../../../riscv-none-embed/lib/rv32ecxw/ilp32e\libg_nano.a(lib_a-stdio.o) (_close_r)
e:/program/mounriver/mounriver_studio/toolchain/risc-v embedded gcc/bin/../lib/gcc/riscv-none-embed/8.2.0/../../../../riscv-none-embed/lib/rv32ecxw/ilp32e\libg_nano.a(lib_a-ctype_.o)
                              e:/program/mounriver/mounriver_studio/toolchain/risc-v embedded gcc/bin/../lib/gcc/riscv-none-embed/8.2.0/../../../../riscv-none-embed/lib/rv32ecxw/ilp32e\libg_nano.a(lib_a-locale.o) (_ctype_)
e:/program/mounriver/mounriver_studio/toolchain/risc-v embedded gcc/bin/../lib/gcc/riscv-none-embed/8.2.0/../../../../riscv-none-embed/lib/rv32ecxw/ilp32e\libg_nano.a(lib_a-fstatr.o)
                              e:/program/mounriver/mounriver_studio/toolchain/risc-v embedded gcc/bin/../lib/gcc/riscv-none-embed/8.2.0/../../../../riscv-none-embed/lib/rv32ecxw/ilp32e\libg_nano.a(lib_a-makebuf.o) (_fstat_r)
e:/program/mounriver/mounriver_studio/toolchain/risc-v embedded gcc/bin/../lib/gcc/riscv-none-embed/8.2.0/../../../../riscv-none-embed/lib/rv32ecxw/ilp32e\libg_nano.a(lib_a-fvwrite.o)
                              e:/program/mounriver/mounriver_studio/toolchain/risc-v embedded gcc/bin/../lib/gcc/riscv-none-embed/8.2.0/../../../../riscv-none-embed/lib/rv32ecxw/ilp32e\libg_nano.a(lib_a-nano-vfprintf.o) (__sfvwrite_r)
e:/program/mounriver/mounriver_studio/toolchain/risc-v embedded gcc/bin/../lib/gcc/riscv-none-embed/8.2.0/../../../../riscv-none-embed/lib/rv32ecxw/ilp32e\libg_nano.a(lib_a-isattyr.o)
                              e:/program/mounriver/mounriver_studio/toolchain/risc-v embedded gcc/bin/../lib/gcc/riscv-none-embed/8.2.0/../../../../riscv-none-embed/lib/rv32ecxw/ilp32e\libg_nano.a(lib_a-makebuf.o) (_isatty_r)
e:/program/mounriver/mounriver_studio/toolchain/risc-v embedded gcc/bin/../lib/gcc/riscv-none-embed/8.2.0/../../../../riscv-none-embed/lib/rv32ecxw/ilp32e\libg_nano.a(lib_a-lseekr.o)
                              e:/program/mounriver/mounriver_studio/toolchain/risc-v embedded gcc/bin/../lib/gcc/riscv-none-embed/8.2.0/../../../../riscv-none-embed/lib/rv32ecxw/ilp32e\libg_nano.a(lib_a-stdio.o) (_lseek_r)
e:/program/mounriver/mounriver_studio/toolchain/risc-v embedded gcc/bin/../lib/gcc/riscv-none-embed/8.2.0/../../../../riscv-none-embed/lib/rv32ecxw/ilp32e\libg_nano.a(lib_a-memchr.o)
                              e:/program/mounriver/mounriver_studio/toolchain/risc-v embedded gcc/bin/../lib/gcc/riscv-none-embed/8.2.0/../../../../riscv-none-embed/lib/rv32ecxw/ilp32e\libg_nano.a(lib_a-nano-svfprintf.o) (memchr)
e:/program/mounriver/mounriver_studio/toolchain/risc-v embedded gcc/bin/../lib/gcc/riscv-none-embed/8.2.0/../../../../riscv-none-embed/lib/rv32ecxw/ilp32e\libg_nano.a(lib_a-memmove.o)
                              e:/program/mounriver/mounriver_studio/toolchain/risc-v embedded gcc/bin/../lib/gcc/riscv-none-embed/8.2.0/../../../../riscv-none-embed/lib/rv32ecxw/ilp32e\libg_nano.a(lib_a-nano-svfprintf.o) (memmove)
e:/program/mounriver/mounriver_studio/toolchain/risc-v embedded gcc/bin/../lib/gcc/riscv-none-embed/8.2.0/../../../../riscv-none-embed/lib/rv32ecxw/ilp32e\libg_nano.a(lib_a-mlock.o)
                              e:/program/mounriver/mounriver_studio/toolchain/risc-v embedded gcc/bin/../lib/gcc/riscv-none-embed/8.2.0/../../../../riscv-none-embed/lib/rv32ecxw/ilp32e\libg_nano.a(lib_a-nano-freer.o) (__malloc_lock)
e:/program/mounriver/mounriver_studio/toolchain/risc-v embedded gcc/bin/../lib/gcc/riscv-none-embed/8.2.0/../../../../riscv-none-embed/lib/rv32ecxw/ilp32e\libg_nano.a(lib_a-nano-reallocr.o)
                              e:/program/mounriver/mounriver_studio/toolchain/risc-v embedded gcc/bin/../lib/gcc/riscv-none-embed/8.2.0/../../../../riscv-none-embed/lib/rv32ecxw/ilp32e\libg_nano.a(lib_a-nano-svfprintf.o) (_realloc_r)
e:/program/mounriver/mounriver_studio/toolchain/risc-v embedded gcc/bin/../lib/gcc/riscv-none-embed/8.2.0/../../../../riscv-none-embed/lib/rv32ecxw/ilp32e\libg_nano.a(lib_a-readr.o)
                              e:/program/mounriver/mounriver_studio/toolchain/risc-v embedded gcc/bin/../lib/gcc/riscv-none-embed/8.2.0/../../../../riscv-none-embed/lib/rv32ecxw/ilp32e\libg_nano.a(lib_a-stdio.o) (_read_r)
e:/program/mounriver/mounriver_studio/toolchain/risc-v embedded gcc/bin/../lib/gcc/riscv-none-embed/8.2.0/../../../../riscv-none-embed/lib/rv32ecxw/ilp32e\libg_nano.a(lib_a-reent.o)
                              e:/program/mounriver/mounriver_studio/toolchain/risc-v embedded gcc/bin/../lib/gcc/riscv-none-embed/8.2.0/../../../../riscv-none-embed/lib/rv32ecxw/ilp32e\libg_nano.a(lib_a-sbrkr.o) (errno)
e:/program/mounriver/mounriver_studio/toolchain/risc-v embedded gcc/bin/../lib/gcc/riscv-none-embed/8.2.0/../../../../riscv-none-embed/lib/rv32ecxw/ilp32e\libg_nano.a(lib_a-nano-msizer.o)
                              e:/program/mounriver/mounriver_studio/toolchain/risc-v embedded gcc/bin/../lib/gcc/riscv-none-embed/8.2.0/../../../../riscv-none-embed/lib/rv32ecxw/ilp32e\libg_nano.a(lib_a-nano-reallocr.o) (_malloc_usable_size_r)
e:/program/mounriver/mounriver_studio/toolchain/risc-v embedded gcc/bin/../lib/gcc/riscv-none-embed/8.2.0/../../../../riscv-none-embed/lib/rv32ecxw/ilp32e\libnosys.a(close.o)
                              e:/program/mounriver/mounriver_studio/toolchain/risc-v embedded gcc/bin/../lib/gcc/riscv-none-embed/8.2.0/../../../../riscv-none-embed/lib/rv32ecxw/ilp32e\libg_nano.a(lib_a-closer.o) (_close)
e:/program/mounriver/mounriver_studio/toolchain/risc-v embedded gcc/bin/../lib/gcc/riscv-none-embed/8.2.0/../../../../riscv-none-embed/lib/rv32ecxw/ilp32e\libnosys.a(fstat.o)
                              e:/program/mounriver/mounriver_studio/toolchain/risc-v embedded gcc/bin/../lib/gcc/riscv-none-embed/8.2.0/../../../../riscv-none-embed/lib/rv32ecxw/ilp32e\libg_nano.a(lib_a-fstatr.o) (_fstat)
e:/program/mounriver/mounriver_studio/toolchain/risc-v embedded gcc/bin/../lib/gcc/riscv-none-embed/8.2.0/../../../../riscv-none-embed/lib/rv32ecxw/ilp32e\libnosys.a(isatty.o)
                              e:/program/mounriver/mounriver_studio/toolchain/risc-v embedded gcc/bin/../lib/gcc/riscv-none-embed/8.2.0/../../../../riscv-none-embed/lib/rv32ecxw/ilp32e\libg_nano.a(lib_a-isattyr.o) (_isatty)
e:/program/mounriver/mounriver_studio/toolchain/risc-v embedded gcc/bin/../lib/gcc/riscv-none-embed/8.2.0/../../../../riscv-none-embed/lib/rv32ecxw/ilp32e\libnosys.a(lseek.o)
                              e:/program/mounriver/mounriver_studio/toolchain/risc-v embedded gcc/bin/../lib/gcc/riscv-none-embed/8.2.0/../../../../riscv-none-embed/lib/rv32ecxw/ilp32e\libg_nano.a(lib_a-lseekr.o) (_lseek)
e:/program/mounriver/mounriver_studio/toolchain/risc-v embedded gcc/bin/../lib/gcc/riscv-none-embed/8.2.0/../../../../riscv-none-embed/lib/rv32ecxw/ilp32e\libnosys.a(read.o)
                              e:/program/mounriver/mounriver_studio/toolchain/risc-v embedded gcc/bin/../lib/gcc/riscv-none-embed/8.2.0/../../../../riscv-none-embed/lib/rv32ecxw/ilp32e\libg_nano.a(lib_a-readr.o) (_read)

Allocating common symbols
Common symbol       size              file

errno               0x4               e:/program/mounriver/mounriver_studio/toolchain/risc-v embedded gcc/bin/../lib/gcc/riscv-none-embed/8.2.0/../../../../riscv-none-embed/lib/rv32ecxw/ilp32e\libg_nano.a(lib_a-reent.o)

Discarded input sections

 .text          0x0000000000000000        0x0 build/main.o
 .data          0x0000000000000000        0x0 build/main.o
 .bss           0x0000000000000000        0x0 build/main.o
 .text          0x0000000000000000        0x0 build/eth_driver.o
 .data          0x0000000000000000        0x0 build/eth_driver.o
 .bss           0x0000000000000000        0x0 build/eth_driver.o
 .text          0x0000000000000000        0x0 build/HTTPS.o
 .data          0x0000000000000000        0x0 build/HTTPS.o
 .bss           0x0000000000000000        0x0 build/HTTPS.o
 .text          0x0000000000000000        0x0 build/ch32v30x_it.o
 .data          0x0000000000000000        0x0 build/ch32v30x_it.o
 .bss           0x0000000000000000        0x0 build/ch32v30x_it.o
 .text          0x0000000000000000        0x0 build/system_ch32v30x.o
 .data          0x0000000000000000        0x0 build/system_ch32v30x.o
 .bss           0x0000000000000000        0x0 build/system_ch32v30x.o
 .text          0x0000000000000000        0x0 build/debug.o
 .data          0x0000000000000000        0x0 build/debug.o
 .bss           0x0000000000000000        0x0 build/debug.o
 .text          0x0000000000000000        0x0 build/ch32v30x_adc.o
 .data          0x0000000000000000        0x0 build/ch32v30x_adc.o
 .bss           0x0000000000000000        0x0 build/ch32v30x_adc.o
 .text.ADC_DeInit
                0x0000000000000000       0x5a build/ch32v30x_adc.o
 .text.ADC_Init
                0x0000000000000000       0x56 build/ch32v30x_adc.o
 .text.ADC_StructInit
                0x0000000000000000       0x1a build/ch32v30x_adc.o
 .text.ADC_Cmd  0x0000000000000000       0x10 build/ch32v30x_adc.o
 .text.ADC_DMACmd
                0x0000000000000000       0x12 build/ch32v30x_adc.o
 .text.ADC_ITConfig
                0x0000000000000000       0x16 build/ch32v30x_adc.o
 .text.ADC_ResetCalibration
                0x0000000000000000        0xa build/ch32v30x_adc.o
 .text.ADC_GetResetCalibrationStatus
                0x0000000000000000        0x8 build/ch32v30x_adc.o
 .text.ADC_StartCalibration
                0x0000000000000000        0xa build/ch32v30x_adc.o
 .text.ADC_GetCalibrationStatus
                0x0000000000000000        0x8 build/ch32v30x_adc.o
 .text.ADC_SoftwareStartConvCmd
                0x0000000000000000       0x18 build/ch32v30x_adc.o
 .text.ADC_GetSoftwareStartConvStatus
                0x0000000000000000        0x8 build/ch32v30x_adc.o
 .text.ADC_DiscModeChannelCountConfig
                0x0000000000000000       0x12 build/ch32v30x_adc.o
 .text.ADC_DiscModeCmd
                0x0000000000000000       0x1a build/ch32v30x_adc.o
 .text.ADC_RegularChannelConfig
                0x0000000000000000       0xba build/ch32v30x_adc.o
 .text.ADC_ExternalTrigConvCmd
                0x0000000000000000       0x18 build/ch32v30x_adc.o
 .text.ADC_GetConversionValue
                0x0000000000000000        0x8 build/ch32v30x_adc.o
 .text.ADC_GetDualModeConversionValue
                0x0000000000000000        0xa build/ch32v30x_adc.o
 .text.ADC_AutoInjectedConvCmd
                0x0000000000000000       0x12 build/ch32v30x_adc.o
 .text.ADC_InjectedDiscModeCmd
                0x0000000000000000       0x14 build/ch32v30x_adc.o
 .text.ADC_ExternalTrigInjectedConvConfig
                0x0000000000000000        0xe build/ch32v30x_adc.o
 .text.ADC_ExternalTrigInjectedConvCmd
                0x0000000000000000       0x14 build/ch32v30x_adc.o
 .text.ADC_SoftwareStartInjectedConvCmd
                0x0000000000000000       0x18 build/ch32v30x_adc.o
 .text.ADC_GetSoftwareStartInjectedConvCmdStatus
                0x0000000000000000        0x8 build/ch32v30x_adc.o
 .text.ADC_InjectedChannelConfig
                0x0000000000000000       0x7a build/ch32v30x_adc.o
 .text.ADC_InjectedSequencerLengthConfig
                0x0000000000000000       0x14 build/ch32v30x_adc.o
 .text.ADC_SetInjectedOffset
                0x0000000000000000       0x14 build/ch32v30x_adc.o
 .text.ADC_GetInjectedConversionValue
                0x0000000000000000       0x1c build/ch32v30x_adc.o
 .text.ADC_AnalogWatchdogCmd
                0x0000000000000000       0x12 build/ch32v30x_adc.o
 .text.ADC_AnalogWatchdogThresholdsConfig
                0x0000000000000000        0x6 build/ch32v30x_adc.o
 .text.ADC_AnalogWatchdogSingleChannelConfig
                0x0000000000000000        0xa build/ch32v30x_adc.o
 .text.ADC_TempSensorVrefintCmd
                0x0000000000000000       0x20 build/ch32v30x_adc.o
 .text.ADC_GetFlagStatus
                0x0000000000000000        0xa build/ch32v30x_adc.o
 .text.ADC_ClearFlag
                0x0000000000000000        0x8 build/ch32v30x_adc.o
 .text.ADC_GetITStatus
                0x0000000000000000       0x1c build/ch32v30x_adc.o
 .text.ADC_ClearITPendingBit
                0x0000000000000000        0xa build/ch32v30x_adc.o
 .text.TempSensor_Volt_To_Temper
                0x0000000000000000       0x3c build/ch32v30x_adc.o
 .text.ADC_BufferCmd
                0x0000000000000000       0x18 build/ch32v30x_adc.o
 .text.Get_CalibrationValue
                0x0000000000000000      0x15c build/ch32v30x_adc.o
 .debug_info    0x0000000000000000     0x16e7 build/ch32v30x_adc.o
 .debug_abbrev  0x0000000000000000      0x3c7 build/ch32v30x_adc.o
 .debug_loc     0x0000000000000000      0xaec build/ch32v30x_adc.o
 .debug_aranges
                0x0000000000000000      0x150 build/ch32v30x_adc.o
 .debug_ranges  0x0000000000000000      0x140 build/ch32v30x_adc.o
 .debug_line    0x0000000000000000     0x17d7 build/ch32v30x_adc.o
 .debug_str     0x0000000000000000      0xc11 build/ch32v30x_adc.o
 .comment       0x0000000000000000       0x34 build/ch32v30x_adc.o
 .debug_frame   0x0000000000000000      0x2c0 build/ch32v30x_adc.o
 .text          0x0000000000000000        0x0 build/ch32v30x_bkp.o
 .data          0x0000000000000000        0x0 build/ch32v30x_bkp.o
 .bss           0x0000000000000000        0x0 build/ch32v30x_bkp.o
 .text.BKP_DeInit
                0x0000000000000000       0x24 build/ch32v30x_bkp.o
 .text.BKP_TamperPinLevelConfig
                0x0000000000000000       0x20 build/ch32v30x_bkp.o
 .text.BKP_TamperPinCmd
                0x0000000000000000       0x20 build/ch32v30x_bkp.o
 .text.BKP_ITConfig
                0x0000000000000000       0x20 build/ch32v30x_bkp.o
 .text.BKP_RTCOutputConfig
                0x0000000000000000       0x18 build/ch32v30x_bkp.o
 .text.BKP_SetRTCCalibrationValue
                0x0000000000000000       0x18 build/ch32v30x_bkp.o
 .text.BKP_WriteBackupRegister
                0x0000000000000000       0x1c build/ch32v30x_bkp.o
 .text.BKP_ReadBackupRegister
                0x0000000000000000       0x1c build/ch32v30x_bkp.o
 .text.BKP_GetFlagStatus
                0x0000000000000000        0xe build/ch32v30x_bkp.o
 .text.BKP_ClearFlag
                0x0000000000000000       0x12 build/ch32v30x_bkp.o
 .text.BKP_GetITStatus
                0x0000000000000000        0xe build/ch32v30x_bkp.o
 .text.BKP_ClearITPendingBit
                0x0000000000000000       0x12 build/ch32v30x_bkp.o
 .debug_info    0x0000000000000000     0x10c0 build/ch32v30x_bkp.o
 .debug_abbrev  0x0000000000000000      0x2cc build/ch32v30x_bkp.o
 .debug_loc     0x0000000000000000       0xd8 build/ch32v30x_bkp.o
 .debug_aranges
                0x0000000000000000       0x78 build/ch32v30x_bkp.o
 .debug_ranges  0x0000000000000000       0x68 build/ch32v30x_bkp.o
 .debug_line    0x0000000000000000      0x5f8 build/ch32v30x_bkp.o
 .debug_str     0x0000000000000000      0xa9f build/ch32v30x_bkp.o
 .comment       0x0000000000000000       0x34 build/ch32v30x_bkp.o
 .debug_frame   0x0000000000000000       0xec build/ch32v30x_bkp.o
 .text          0x0000000000000000        0x0 build/ch32v30x_can.o
 .data          0x0000000000000000        0x0 build/ch32v30x_can.o
 .bss           0x0000000000000000        0x0 build/ch32v30x_can.o
 .text.CAN_DeInit
                0x0000000000000000       0x4c build/ch32v30x_can.o
 .text.CAN_Init
                0x0000000000000000       0xe8 build/ch32v30x_can.o
 .text.CAN_FilterInit
                0x0000000000000000       0xf4 build/ch32v30x_can.o
 .text.CAN_StructInit
                0x0000000000000000       0x24 build/ch32v30x_can.o
 .text.CAN_SlaveStartBank
                0x0000000000000000       0x38 build/ch32v30x_can.o
 .text.CAN_DBGFreeze
                0x0000000000000000       0x14 build/ch32v30x_can.o
 .text.CAN_TTComModeCmd
                0x0000000000000000       0x58 build/ch32v30x_can.o
 .text.CAN_Transmit
                0x0000000000000000       0xbc build/ch32v30x_can.o
 .text.CAN_TransmitStatus
                0x0000000000000000       0x62 build/ch32v30x_can.o
 .text.CAN_CancelTransmit
                0x0000000000000000       0x2a build/ch32v30x_can.o
 .text.CAN_Receive
                0x0000000000000000       0x8c build/ch32v30x_can.o
 .text.CAN_FIFORelease
                0x0000000000000000       0x16 build/ch32v30x_can.o
 .text.CAN_MessagePending
                0x0000000000000000       0x16 build/ch32v30x_can.o
 .text.CAN_OperatingModeRequest
                0x0000000000000000       0x72 build/ch32v30x_can.o
 .text.CAN_Sleep
                0x0000000000000000       0x16 build/ch32v30x_can.o
 .text.CAN_WakeUp
                0x0000000000000000       0x1e build/ch32v30x_can.o
 .text.CAN_GetLastErrorCode
                0x0000000000000000        0x8 build/ch32v30x_can.o
 .text.CAN_GetReceiveErrorCounter
                0x0000000000000000        0x6 build/ch32v30x_can.o
 .text.CAN_GetLSBTransmitErrorCounter
                0x0000000000000000        0xa build/ch32v30x_can.o
 .text.CAN_ITConfig
                0x0000000000000000       0x12 build/ch32v30x_can.o
 .text.CAN_GetFlagStatus
                0x0000000000000000       0x56 build/ch32v30x_can.o
 .text.CAN_ClearFlag
                0x0000000000000000       0x40 build/ch32v30x_can.o
 .text.CAN_GetITStatus
                0x0000000000000000       0xd0 build/ch32v30x_can.o
 .text.CAN_ClearITPendingBit
                0x0000000000000000       0x94 build/ch32v30x_can.o
 .debug_info    0x0000000000000000     0x1807 build/ch32v30x_can.o
 .debug_abbrev  0x0000000000000000      0x3eb build/ch32v30x_can.o
 .debug_loc     0x0000000000000000      0x999 build/ch32v30x_can.o
 .debug_aranges
                0x0000000000000000       0xd8 build/ch32v30x_can.o
 .debug_ranges  0x0000000000000000       0xf8 build/ch32v30x_can.o
 .debug_line    0x0000000000000000     0x19d3 build/ch32v30x_can.o
 .debug_str     0x0000000000000000      0xbb5 build/ch32v30x_can.o
 .comment       0x0000000000000000       0x34 build/ch32v30x_can.o
 .debug_frame   0x0000000000000000      0x19c build/ch32v30x_can.o
 .text          0x0000000000000000        0x0 build/ch32v30x_crc.o
 .data          0x0000000000000000        0x0 build/ch32v30x_crc.o
 .bss           0x0000000000000000        0x0 build/ch32v30x_crc.o
 .text.CRC_ResetDR
                0x0000000000000000        0xa build/ch32v30x_crc.o
 .text.CRC_CalcCRC
                0x0000000000000000        0xa build/ch32v30x_crc.o
 .text.CRC_CalcBlockCRC
                0x0000000000000000       0x20 build/ch32v30x_crc.o
 .text.CRC_GetCRC
                0x0000000000000000        0x8 build/ch32v30x_crc.o
 .text.CRC_SetIDRegister
                0x0000000000000000        0x8 build/ch32v30x_crc.o
 .text.CRC_GetIDRegister
                0x0000000000000000        0x8 build/ch32v30x_crc.o
 .debug_info    0x0000000000000000      0xab3 build/ch32v30x_crc.o
 .debug_abbrev  0x0000000000000000      0x25f build/ch32v30x_crc.o
 .debug_loc     0x0000000000000000       0x75 build/ch32v30x_crc.o
 .debug_aranges
                0x0000000000000000       0x48 build/ch32v30x_crc.o
 .debug_ranges  0x0000000000000000       0x38 build/ch32v30x_crc.o
 .debug_line    0x0000000000000000      0x376 build/ch32v30x_crc.o
 .debug_str     0x0000000000000000      0x675 build/ch32v30x_crc.o
 .comment       0x0000000000000000       0x34 build/ch32v30x_crc.o
 .debug_frame   0x0000000000000000       0x70 build/ch32v30x_crc.o
 .text          0x0000000000000000        0x0 build/ch32v30x_dac.o
 .data          0x0000000000000000        0x0 build/ch32v30x_dac.o
 .bss           0x0000000000000000        0x0 build/ch32v30x_dac.o
 .text.DAC_DeInit
                0x0000000000000000       0x2c build/ch32v30x_dac.o
 .text.DAC_Init
                0x0000000000000000       0x30 build/ch32v30x_dac.o
 .text.DAC_StructInit
                0x0000000000000000       0x12 build/ch32v30x_dac.o
 .text.DAC_Cmd  0x0000000000000000       0x2c build/ch32v30x_dac.o
 .text.DAC_DMACmd
                0x0000000000000000       0x2c build/ch32v30x_dac.o
 .text.DAC_SoftwareTriggerCmd
                0x0000000000000000       0x22 build/ch32v30x_dac.o
 .text.DAC_DualSoftwareTriggerCmd
                0x0000000000000000       0x18 build/ch32v30x_dac.o
 .text.DAC_WaveGenerationCmd
                0x0000000000000000       0x1e build/ch32v30x_dac.o
 .text.DAC_SetChannel1Data
                0x0000000000000000       0x1e build/ch32v30x_dac.o
 .text.DAC_SetChannel2Data
                0x0000000000000000       0x1e build/ch32v30x_dac.o
 .text.DAC_SetDualChannelData
                0x0000000000000000       0x1c build/ch32v30x_dac.o
 .text.DAC_GetDataOutputValue
                0x0000000000000000       0x26 build/ch32v30x_dac.o
 .debug_info    0x0000000000000000      0xdbd build/ch32v30x_dac.o
 .debug_abbrev  0x0000000000000000      0x2fe build/ch32v30x_dac.o
 .debug_loc     0x0000000000000000      0x238 build/ch32v30x_dac.o
 .debug_aranges
                0x0000000000000000       0x78 build/ch32v30x_dac.o
 .debug_ranges  0x0000000000000000       0x68 build/ch32v30x_dac.o
 .debug_line    0x0000000000000000      0x778 build/ch32v30x_dac.o
 .debug_str     0x0000000000000000      0x7f9 build/ch32v30x_dac.o
 .comment       0x0000000000000000       0x34 build/ch32v30x_dac.o
 .debug_frame   0x0000000000000000       0xf4 build/ch32v30x_dac.o
 .text          0x0000000000000000        0x0 build/ch32v30x_dbgmcu.o
 .data          0x0000000000000000        0x0 build/ch32v30x_dbgmcu.o
 .bss           0x0000000000000000        0x0 build/ch32v30x_dbgmcu.o
 .text.DBGMCU_GetREVID
                0x0000000000000000        0xa build/ch32v30x_dbgmcu.o
 .text.DBGMCU_GetDEVID
                0x0000000000000000        0xa build/ch32v30x_dbgmcu.o
 .text.__get_DEBUG_CR
                0x0000000000000000        0x6 build/ch32v30x_dbgmcu.o
 .text.__set_DEBUG_CR
                0x0000000000000000        0x6 build/ch32v30x_dbgmcu.o
 .text.DBGMCU_Config
                0x0000000000000000       0x14 build/ch32v30x_dbgmcu.o
 .debug_info    0x0000000000000000      0xa7e build/ch32v30x_dbgmcu.o
 .debug_abbrev  0x0000000000000000      0x2f7 build/ch32v30x_dbgmcu.o
 .debug_loc     0x0000000000000000       0x6e build/ch32v30x_dbgmcu.o
 .debug_aranges
                0x0000000000000000       0x40 build/ch32v30x_dbgmcu.o
 .debug_ranges  0x0000000000000000       0x48 build/ch32v30x_dbgmcu.o
 .debug_line    0x0000000000000000      0x314 build/ch32v30x_dbgmcu.o
 .debug_str     0x0000000000000000      0x62f build/ch32v30x_dbgmcu.o
 .comment       0x0000000000000000       0x34 build/ch32v30x_dbgmcu.o
 .debug_frame   0x0000000000000000       0x60 build/ch32v30x_dbgmcu.o
 .text          0x0000000000000000        0x0 build/ch32v30x_dma.o
 .data          0x0000000000000000        0x0 build/ch32v30x_dma.o
 .bss           0x0000000000000000        0x0 build/ch32v30x_dma.o
 .text.DMA_DeInit
                0x0000000000000000      0x16c build/ch32v30x_dma.o
 .text.DMA_Init
                0x0000000000000000       0x38 build/ch32v30x_dma.o
 .text.DMA_StructInit
                0x0000000000000000       0x2e build/ch32v30x_dma.o
 .text.DMA_Cmd  0x0000000000000000       0x14 build/ch32v30x_dma.o
 .text.DMA_ITConfig
                0x0000000000000000       0x12 build/ch32v30x_dma.o
 .text.DMA_SetCurrDataCounter
                0x0000000000000000        0x4 build/ch32v30x_dma.o
 .text.DMA_GetCurrDataCounter
                0x0000000000000000        0x8 build/ch32v30x_dma.o
 .text.DMA_GetFlagStatus
                0x0000000000000000       0x32 build/ch32v30x_dma.o
 .text.DMA_ClearFlag
                0x0000000000000000       0x2c build/ch32v30x_dma.o
 .text.DMA_GetITStatus
                0x0000000000000000       0x18 build/ch32v30x_dma.o
 .text.DMA_ClearITPendingBit
                0x0000000000000000       0x18 build/ch32v30x_dma.o
 .debug_info    0x0000000000000000      0xd13 build/ch32v30x_dma.o
 .debug_abbrev  0x0000000000000000      0x2fd build/ch32v30x_dma.o
 .debug_loc     0x0000000000000000      0x18f build/ch32v30x_dma.o
 .debug_aranges
                0x0000000000000000       0x60 build/ch32v30x_dma.o
 .debug_ranges  0x0000000000000000       0x50 build/ch32v30x_dma.o
 .debug_line    0x0000000000000000      0x95f build/ch32v30x_dma.o
 .debug_str     0x0000000000000000      0x7ed build/ch32v30x_dma.o
 .comment       0x0000000000000000       0x34 build/ch32v30x_dma.o
 .debug_frame   0x0000000000000000       0xd8 build/ch32v30x_dma.o
 .text          0x0000000000000000        0x0 build/ch32v30x_dvp.o
 .data          0x0000000000000000        0x0 build/ch32v30x_dvp.o
 .bss           0x0000000000000000        0x0 build/ch32v30x_dvp.o
 .text.DVP_INTCfg
                0x0000000000000000       0x16 build/ch32v30x_dvp.o
 .text.DVP_Mode
                0x0000000000000000       0x32 build/ch32v30x_dvp.o
 .text.DVP_Cfg  0x0000000000000000       0x62 build/ch32v30x_dvp.o
 .debug_info    0x0000000000000000      0xbc5 build/ch32v30x_dvp.o
 .debug_abbrev  0x0000000000000000      0x241 build/ch32v30x_dvp.o
 .debug_loc     0x0000000000000000       0x74 build/ch32v30x_dvp.o
 .debug_aranges
                0x0000000000000000       0x30 build/ch32v30x_dvp.o
 .debug_ranges  0x0000000000000000       0x20 build/ch32v30x_dvp.o
 .debug_line    0x0000000000000000      0x3e9 build/ch32v30x_dvp.o
 .debug_str     0x0000000000000000      0x736 build/ch32v30x_dvp.o
 .comment       0x0000000000000000       0x34 build/ch32v30x_dvp.o
 .debug_frame   0x0000000000000000       0x40 build/ch32v30x_dvp.o
 .text          0x0000000000000000        0x0 build/ch32v30x_eth.o
 .data          0x0000000000000000        0x0 build/ch32v30x_eth.o
 .bss           0x0000000000000000        0x0 build/ch32v30x_eth.o
 .text.ETH_HandleTxPkt
                0x0000000000000000       0x8c build/ch32v30x_eth.o
 .text.ETH_HandleRxPkt
                0x0000000000000000       0x9e build/ch32v30x_eth.o
 .text.ETH_GetRxPktSize
                0x0000000000000000       0x32 build/ch32v30x_eth.o
 .text.ETH_DropRxPkt
                0x0000000000000000       0x3c build/ch32v30x_eth.o
 .text.ETH_PHYLoopBackCmd
                0x0000000000000000       0x40 build/ch32v30x_eth.o
 .text.ETH_MACTransmissionCmd
                0x0000000000000000       0x14 build/ch32v30x_eth.o
 .text.ETH_MACReceptionCmd
                0x0000000000000000       0x14 build/ch32v30x_eth.o
 .text.ETH_GetFlowControlBusyStatus
                0x0000000000000000        0xa build/ch32v30x_eth.o
 .text.ETH_InitiatePauseControlFrame
                0x0000000000000000        0xe build/ch32v30x_eth.o
 .text.ETH_BackPressureActivationCmd
                0x0000000000000000       0x14 build/ch32v30x_eth.o
 .text.ETH_GetMACFlagStatus
                0x0000000000000000        0xe build/ch32v30x_eth.o
 .text.ETH_GetMACITStatus
                0x0000000000000000       0x18 build/ch32v30x_eth.o
 .text.ETH_MACITConfig
                0x0000000000000000       0x1e build/ch32v30x_eth.o
 .text.ETH_MACAddressConfig
                0x0000000000000000       0x32 build/ch32v30x_eth.o
 .text.ETH_GetMACAddress
                0x0000000000000000       0x32 build/ch32v30x_eth.o
 .text.ETH_MACAddressPerfectFilterCmd
                0x0000000000000000       0x1e build/ch32v30x_eth.o
 .text.ETH_MACAddressFilterConfig
                0x0000000000000000       0x28 build/ch32v30x_eth.o
 .text.ETH_MACAddressMaskBytesFilterConfig
                0x0000000000000000       0x1e build/ch32v30x_eth.o
 .text.ETH_DMATxDescRingInit
                0x0000000000000000       0x52 build/ch32v30x_eth.o
 .text.ETH_GetDMATxDescFlagStatus
                0x0000000000000000        0xa build/ch32v30x_eth.o
 .text.ETH_GetDMATxDescCollisionCount
                0x0000000000000000        0x8 build/ch32v30x_eth.o
 .text.ETH_SetDMATxDescOwnBit
                0x0000000000000000        0xc build/ch32v30x_eth.o
 .text.ETH_DMATxDescTransmitITConfig
                0x0000000000000000       0x18 build/ch32v30x_eth.o
 .text.ETH_DMATxDescFrameSegmentConfig
                0x0000000000000000        0x8 build/ch32v30x_eth.o
 .text.ETH_DMATxDescChecksumInsertionConfig
                0x0000000000000000        0x8 build/ch32v30x_eth.o
 .text.ETH_DMATxDescCRCCmd
                0x0000000000000000       0x18 build/ch32v30x_eth.o
 .text.ETH_DMATxDescEndOfRingCmd
                0x0000000000000000       0x18 build/ch32v30x_eth.o
 .text.ETH_DMATxDescSecondAddressChainedCmd
                0x0000000000000000       0x18 build/ch32v30x_eth.o
 .text.ETH_DMATxDescShortFramePaddingCmd
                0x0000000000000000       0x18 build/ch32v30x_eth.o
 .text.ETH_DMATxDescTimeStampCmd
                0x0000000000000000       0x18 build/ch32v30x_eth.o
 .text.ETH_DMATxDescBufferSizeConfig
                0x0000000000000000        0xc build/ch32v30x_eth.o
 .text.ETH_DMARxDescRingInit
                0x0000000000000000       0x5c build/ch32v30x_eth.o
 .text.ETH_GetDMARxDescFlagStatus
                0x0000000000000000        0xa build/ch32v30x_eth.o
 .text.ETH_SetDMARxDescOwnBit
                0x0000000000000000        0xc build/ch32v30x_eth.o
 .text.ETH_GetDMARxDescFrameLength
                0x0000000000000000        0x8 build/ch32v30x_eth.o
 .text.ETH_DMARxDescReceiveITConfig
                0x0000000000000000       0x14 build/ch32v30x_eth.o
 .text.ETH_DMARxDescEndOfRingCmd
                0x0000000000000000       0x14 build/ch32v30x_eth.o
 .text.ETH_DMARxDescSecondAddressChainedCmd
                0x0000000000000000       0x14 build/ch32v30x_eth.o
 .text.ETH_GetDMARxDescBufferSize
                0x0000000000000000        0xe build/ch32v30x_eth.o
 .text.ETH_GetSoftwareResetStatus
                0x0000000000000000        0xa build/ch32v30x_eth.o
 .text.ETH_GetlinkStaus
                0x0000000000000000        0xa build/ch32v30x_eth.o
 .text.ETH_GetDMAFlagStatus
                0x0000000000000000        0xe build/ch32v30x_eth.o
 .text.ETH_DMAClearFlag
                0x0000000000000000        0x8 build/ch32v30x_eth.o
 .text.ETH_GetDMAITStatus
                0x0000000000000000       0x18 build/ch32v30x_eth.o
 .text.ETH_GetTransmitProcessState
                0x0000000000000000        0xa build/ch32v30x_eth.o
 .text.ETH_GetReceiveProcessState
                0x0000000000000000        0xc build/ch32v30x_eth.o
 .text.ETH_GetFlushTransmitFIFOStatus
                0x0000000000000000        0xc build/ch32v30x_eth.o
 .text.ETH_DMATransmissionCmd
                0x0000000000000000       0x20 build/ch32v30x_eth.o
 .text.ETH_DMAReceptionCmd
                0x0000000000000000       0x14 build/ch32v30x_eth.o
 .text.ETH_GetDMAOverflowStatus
                0x0000000000000000        0xe build/ch32v30x_eth.o
 .text.ETH_GetRxOverflowMissedFrameCounter
                0x0000000000000000        0xe build/ch32v30x_eth.o
 .text.ETH_GetBufferUnavailableMissedFrameCounter
                0x0000000000000000        0xc build/ch32v30x_eth.o
 .text.ETH_GetCurrentTxDescStartAddress
                0x0000000000000000        0x8 build/ch32v30x_eth.o
 .text.ETH_GetCurrentRxDescStartAddress
                0x0000000000000000        0x8 build/ch32v30x_eth.o
 .text.ETH_GetCurrentTxBufferAddress
                0x0000000000000000        0xc build/ch32v30x_eth.o
 .text.ETH_GetCurrentRxBufferAddress
                0x0000000000000000        0x8 build/ch32v30x_eth.o
 .text.ETH_ResumeDMATransmission
                0x0000000000000000        0xa build/ch32v30x_eth.o
 .text.ETH_ResumeDMAReception
                0x0000000000000000        0xa build/ch32v30x_eth.o
 .text.ETH_ResetWakeUpFrameFilterRegisterPointer
                0x0000000000000000       0x10 build/ch32v30x_eth.o
 .text.ETH_SetWakeUpFrameFilterRegister
                0x0000000000000000       0x14 build/ch32v30x_eth.o
 .text.ETH_GlobalUnicastWakeUpCmd
                0x0000000000000000       0x16 build/ch32v30x_eth.o
 .text.ETH_GetPMTFlagStatus
                0x0000000000000000        0xe build/ch32v30x_eth.o
 .text.ETH_WakeUpFrameDetectionCmd
                0x0000000000000000       0x14 build/ch32v30x_eth.o
 .text.ETH_MagicPacketDetectionCmd
                0x0000000000000000       0x14 build/ch32v30x_eth.o
 .text.ETH_PowerDownCmd
                0x0000000000000000       0x14 build/ch32v30x_eth.o
 .text.ETH_MMCCounterFreezeCmd
                0x0000000000000000       0x18 build/ch32v30x_eth.o
 .text.ETH_MMCResetOnReadCmd
                0x0000000000000000       0x18 build/ch32v30x_eth.o
 .text.ETH_MMCCounterRolloverCmd
                0x0000000000000000       0x18 build/ch32v30x_eth.o
 .text.ETH_MMCCountersReset
                0x0000000000000000       0x12 build/ch32v30x_eth.o
 .text.ETH_MMCITConfig
                0x0000000000000000       0x5c build/ch32v30x_eth.o
 .text.ETH_GetMMCITStatus
                0x0000000000000000       0x3a build/ch32v30x_eth.o
 .text.ETH_GetMMCRegister
                0x0000000000000000        0xa build/ch32v30x_eth.o
 .text.ETH_EnablePTPTimeStampAddend
                0x0000000000000000       0x12 build/ch32v30x_eth.o
 .text.ETH_EnablePTPTimeStampInterruptTrigger
                0x0000000000000000       0x12 build/ch32v30x_eth.o
 .text.ETH_EnablePTPTimeStampUpdate
                0x0000000000000000       0x12 build/ch32v30x_eth.o
 .text.ETH_InitializePTPTimeStamp
                0x0000000000000000       0x12 build/ch32v30x_eth.o
 .text.ETH_PTPUpdateMethodConfig
                0x0000000000000000       0x18 build/ch32v30x_eth.o
 .text.ETH_PTPTimeStampCmd
                0x0000000000000000       0x18 build/ch32v30x_eth.o
 .text.ETH_GetPTPFlagStatus
                0x0000000000000000       0x10 build/ch32v30x_eth.o
 .text.ETH_SetPTPSubSecondIncrement
                0x0000000000000000        0xa build/ch32v30x_eth.o
 .text.ETH_SetPTPTimeStampUpdate
                0x0000000000000000       0x10 build/ch32v30x_eth.o
 .text.ETH_SetPTPTimeStampAddend
                0x0000000000000000        0xa build/ch32v30x_eth.o
 .text.ETH_SetPTPTargetTime
                0x0000000000000000        0xe build/ch32v30x_eth.o
 .text.ETH_GetPTPRegister
                0x0000000000000000        0xa build/ch32v30x_eth.o
 .text.ETH_DMAPTPTxDescChainInit
                0x0000000000000000       0x68 build/ch32v30x_eth.o
 .text.ETH_DMAPTPRxDescChainInit
                0x0000000000000000       0x72 build/ch32v30x_eth.o
 .text.ETH_HandlePTPTxPkt
                0x0000000000000000       0xe6 build/ch32v30x_eth.o
 .text.ETH_HandlePTPRxPkt
                0x0000000000000000       0xd0 build/ch32v30x_eth.o
 .text.RGMII_TXC_Delay
                0x0000000000000000       0x26 build/ch32v30x_eth.o
 .bss.DMAPTPRxDescToGet
                0x0000000000000000        0x4 build/ch32v30x_eth.o
 .bss.DMAPTPTxDescToSet
                0x0000000000000000        0x4 build/ch32v30x_eth.o
 .text          0x0000000000000000        0x0 build/ch32v30x_exti.o
 .data          0x0000000000000000        0x0 build/ch32v30x_exti.o
 .bss           0x0000000000000000        0x0 build/ch32v30x_exti.o
 .text.EXTI_DeInit
                0x0000000000000000       0x22 build/ch32v30x_exti.o
 .text.EXTI_Init
                0x0000000000000000       0x6a build/ch32v30x_exti.o
 .text.EXTI_StructInit
                0x0000000000000000       0x12 build/ch32v30x_exti.o
 .text.EXTI_GenerateSWInterrupt
                0x0000000000000000       0x10 build/ch32v30x_exti.o
 .text.EXTI_GetFlagStatus
                0x0000000000000000       0x12 build/ch32v30x_exti.o
 .text.EXTI_ClearFlag
                0x0000000000000000        0xa build/ch32v30x_exti.o
 .text.EXTI_GetITStatus
                0x0000000000000000       0x1e build/ch32v30x_exti.o
 .text          0x0000000000000000        0x0 build/ch32v30x_flash.o
 .data          0x0000000000000000        0x0 build/ch32v30x_flash.o
 .bss           0x0000000000000000        0x0 build/ch32v30x_flash.o
 .text.FLASH_UnlockBank1
                0x0000000000000000       0x18 build/ch32v30x_flash.o
 .text.FLASH_LockBank1
                0x0000000000000000       0x18 build/ch32v30x_flash.o
 .text.FLASH_GetUserOptionByte
                0x0000000000000000        0xa build/ch32v30x_flash.o
 .text.FLASH_GetWriteProtectionOptionByte
                0x0000000000000000        0x8 build/ch32v30x_flash.o
 .text.FLASH_GetReadOutProtectionStatus
                0x0000000000000000        0xc build/ch32v30x_flash.o
 .text.FLASH_ITConfig
                0x0000000000000000       0x1e build/ch32v30x_flash.o
 .text.FLASH_GetFlagStatus
                0x0000000000000000       0x1e build/ch32v30x_flash.o
 .text.FLASH_ClearFlag
                0x0000000000000000        0x8 build/ch32v30x_flash.o
 .text.FLASH_GetStatus
                0x0000000000000000       0x18 build/ch32v30x_flash.o
 .text.FLASH_ErasePage
                0x0000000000000000       0x4c build/ch32v30x_flash.o
 .text.FLASH_EraseAllPages
                0x0000000000000000       0x48 build/ch32v30x_flash.o
 .text.FLASH_EraseAllBank1Pages
                0x0000000000000000       0x18 build/ch32v30x_flash.o
 .text.FLASH_EraseOptionBytes
                0x0000000000000000       0xe8 build/ch32v30x_flash.o
 .text.FLASH_ProgramHalfWord
                0x0000000000000000       0x48 build/ch32v30x_flash.o
 .text.FLASH_ProgramOptionByteData
                0x0000000000000000      0x106 build/ch32v30x_flash.o
 .text.FLASH_EnableWriteProtection
                0x0000000000000000      0x106 build/ch32v30x_flash.o
 .text.FLASH_ReadOutProtection
                0x0000000000000000       0xf4 build/ch32v30x_flash.o
 .text.FLASH_UserOptionByteConfig
                0x0000000000000000       0xf6 build/ch32v30x_flash.o
 .text.FLASH_WaitForLastBank1Operation
                0x0000000000000000       0x18 build/ch32v30x_flash.o
 .text.FLASH_EraseBlock_32K_Fast
                0x0000000000000000       0x30 build/ch32v30x_flash.o
 .text.FLASH_EraseBlock_64K_Fast
                0x0000000000000000       0x30 build/ch32v30x_flash.o
 .text.FLASH_ProgramPage_Fast
                0x0000000000000000       0x64 build/ch32v30x_flash.o
 .text.FLASH_Access_Clock_Cfg
                0x0000000000000000       0x18 build/ch32v30x_flash.o
 .text.FLASH_Enhance_Mode
                0x0000000000000000       0x2e build/ch32v30x_flash.o
 .text          0x0000000000000000        0x0 build/ch32v30x_fsmc.o
 .data          0x0000000000000000        0x0 build/ch32v30x_fsmc.o
 .bss           0x0000000000000000        0x0 build/ch32v30x_fsmc.o
 .text.FSMC_NORSRAMDeInit
                0x0000000000000000       0x3c build/ch32v30x_fsmc.o
 .text.FSMC_NANDDeInit
                0x0000000000000000       0x26 build/ch32v30x_fsmc.o
 .text.FSMC_NORSRAMInit
                0x0000000000000000       0xca build/ch32v30x_fsmc.o
 .text.FSMC_NANDInit
                0x0000000000000000       0x7e build/ch32v30x_fsmc.o
 .text.FSMC_NORSRAMStructInit
                0x0000000000000000       0x60 build/ch32v30x_fsmc.o
 .text.FSMC_NANDStructInit
                0x0000000000000000       0x36 build/ch32v30x_fsmc.o
 .text.FSMC_NORSRAMCmd
                0x0000000000000000       0x1e build/ch32v30x_fsmc.o
 .text.FSMC_NANDCmd
                0x0000000000000000       0x2c build/ch32v30x_fsmc.o
 .text.FSMC_NANDECCCmd
                0x0000000000000000       0x2e build/ch32v30x_fsmc.o
 .text.FSMC_GetECC
                0x0000000000000000       0x12 build/ch32v30x_fsmc.o
 .text.FSMC_ITConfig
                0x0000000000000000       0x26 build/ch32v30x_fsmc.o
 .text.FSMC_GetFlagStatus
                0x0000000000000000       0x18 build/ch32v30x_fsmc.o
 .text.FSMC_ClearFlag
                0x0000000000000000       0x16 build/ch32v30x_fsmc.o
 .text.FSMC_GetITStatus
                0x0000000000000000       0x28 build/ch32v30x_fsmc.o
 .text.FSMC_ClearITPendingBit
                0x0000000000000000       0x18 build/ch32v30x_fsmc.o
 .debug_info    0x0000000000000000     0x104d build/ch32v30x_fsmc.o
 .debug_abbrev  0x0000000000000000      0x2d9 build/ch32v30x_fsmc.o
 .debug_loc     0x0000000000000000      0x4fa build/ch32v30x_fsmc.o
 .debug_aranges
                0x0000000000000000       0x90 build/ch32v30x_fsmc.o
 .debug_ranges  0x0000000000000000       0x80 build/ch32v30x_fsmc.o
 .debug_line    0x0000000000000000      0xdca build/ch32v30x_fsmc.o
 .debug_str     0x0000000000000000      0xac2 build/ch32v30x_fsmc.o
 .comment       0x0000000000000000       0x34 build/ch32v30x_fsmc.o
 .debug_frame   0x0000000000000000      0x110 build/ch32v30x_fsmc.o
 .text          0x0000000000000000        0x0 build/ch32v30x_gpio.o
 .data          0x0000000000000000        0x0 build/ch32v30x_gpio.o
 .bss           0x0000000000000000        0x0 build/ch32v30x_gpio.o
 .text.GPIO_DeInit
                0x0000000000000000       0xa4 build/ch32v30x_gpio.o
 .text.GPIO_AFIODeInit
                0x0000000000000000       0x28 build/ch32v30x_gpio.o
 .text.GPIO_StructInit
                0x0000000000000000        0xe build/ch32v30x_gpio.o
 .text.GPIO_ReadInputData
                0x0000000000000000        0x8 build/ch32v30x_gpio.o
 .text.GPIO_ReadOutputDataBit
                0x0000000000000000        0xa build/ch32v30x_gpio.o
 .text.GPIO_ReadOutputData
                0x0000000000000000        0x8 build/ch32v30x_gpio.o
 .text.GPIO_WriteBit
                0x0000000000000000        0xa build/ch32v30x_gpio.o
 .text.GPIO_Write
                0x0000000000000000        0x4 build/ch32v30x_gpio.o
 .text.GPIO_PinLockConfig
                0x0000000000000000       0x10 build/ch32v30x_gpio.o
 .text.GPIO_EventOutputConfig
                0x0000000000000000       0x18 build/ch32v30x_gpio.o
 .text.GPIO_EventOutputCmd
                0x0000000000000000       0x16 build/ch32v30x_gpio.o
 .text.GPIO_PinRemapConfig
                0x0000000000000000       0xb4 build/ch32v30x_gpio.o
 .text.GPIO_EXTILineConfig
                0x0000000000000000       0x2c build/ch32v30x_gpio.o
 .text.GPIO_ETH_MediaInterfaceConfig
                0x0000000000000000       0x24 build/ch32v30x_gpio.o
 .text          0x0000000000000000        0x0 build/ch32v30x_i2c.o
 .data          0x0000000000000000        0x0 build/ch32v30x_i2c.o
 .bss           0x0000000000000000        0x0 build/ch32v30x_i2c.o
 .text.I2C_DeInit
                0x0000000000000000       0x4c build/ch32v30x_i2c.o
 .text.I2C_Init
                0x0000000000000000      0x136 build/ch32v30x_i2c.o
 .text.I2C_StructInit
                0x0000000000000000       0x18 build/ch32v30x_i2c.o
 .text.I2C_Cmd  0x0000000000000000       0x18 build/ch32v30x_i2c.o
 .text.I2C_DMACmd
                0x0000000000000000       0x1e build/ch32v30x_i2c.o
 .text.I2C_DMALastTransferCmd
                0x0000000000000000       0x16 build/ch32v30x_i2c.o
 .text.I2C_GenerateSTART
                0x0000000000000000       0x1a build/ch32v30x_i2c.o
 .text.I2C_GenerateSTOP
                0x0000000000000000       0x1a build/ch32v30x_i2c.o
 .text.I2C_AcknowledgeConfig
                0x0000000000000000       0x1a build/ch32v30x_i2c.o
 .text.I2C_OwnAddress2Config
                0x0000000000000000       0x14 build/ch32v30x_i2c.o
 .text.I2C_DualAddressCmd
                0x0000000000000000       0x18 build/ch32v30x_i2c.o
 .text.I2C_GeneralCallCmd
                0x0000000000000000       0x1a build/ch32v30x_i2c.o
 .text.I2C_ITConfig
                0x0000000000000000       0x12 build/ch32v30x_i2c.o
 .text.I2C_SendData
                0x0000000000000000        0x4 build/ch32v30x_i2c.o
 .text.I2C_ReceiveData
                0x0000000000000000        0x8 build/ch32v30x_i2c.o
 .text.I2C_Send7bitAddress
                0x0000000000000000       0x12 build/ch32v30x_i2c.o
 .text.I2C_ReadRegister
                0x0000000000000000       0x14 build/ch32v30x_i2c.o
 .text.I2C_SoftwareResetCmd
                0x0000000000000000       0x12 build/ch32v30x_i2c.o
 .text.I2C_NACKPositionConfig
                0x0000000000000000       0x22 build/ch32v30x_i2c.o
 .text.I2C_SMBusAlertConfig
                0x0000000000000000       0x1a build/ch32v30x_i2c.o
 .text.I2C_TransmitPEC
                0x0000000000000000       0x16 build/ch32v30x_i2c.o
 .text.I2C_PECPositionConfig
                0x0000000000000000       0x18 build/ch32v30x_i2c.o
 .text.I2C_CalculatePEC
                0x0000000000000000       0x1a build/ch32v30x_i2c.o
 .text.I2C_GetPEC
                0x0000000000000000        0x6 build/ch32v30x_i2c.o
 .text.I2C_ARPCmd
                0x0000000000000000       0x18 build/ch32v30x_i2c.o
 .text.I2C_StretchClockCmd
                0x0000000000000000       0x1a build/ch32v30x_i2c.o
 .text.I2C_FastModeDutyCycleConfig
                0x0000000000000000       0x1a build/ch32v30x_i2c.o
 .text.I2C_CheckEvent
                0x0000000000000000       0x16 build/ch32v30x_i2c.o
 .text.I2C_GetLastEvent
                0x0000000000000000        0xe build/ch32v30x_i2c.o
 .text.I2C_GetFlagStatus
                0x0000000000000000       0x32 build/ch32v30x_i2c.o
 .text.I2C_ClearFlag
                0x0000000000000000        0xc build/ch32v30x_i2c.o
 .text.I2C_GetITStatus
                0x0000000000000000       0x20 build/ch32v30x_i2c.o
 .text.I2C_ClearITPendingBit
                0x0000000000000000        0xc build/ch32v30x_i2c.o
 .debug_info    0x0000000000000000     0x1481 build/ch32v30x_i2c.o
 .debug_abbrev  0x0000000000000000      0x3c3 build/ch32v30x_i2c.o
 .debug_loc     0x0000000000000000      0x6cb build/ch32v30x_i2c.o
 .debug_aranges
                0x0000000000000000      0x110 build/ch32v30x_i2c.o
 .debug_ranges  0x0000000000000000      0x100 build/ch32v30x_i2c.o
 .debug_line    0x0000000000000000     0x10e7 build/ch32v30x_i2c.o
 .debug_str     0x0000000000000000      0xada build/ch32v30x_i2c.o
 .comment       0x0000000000000000       0x34 build/ch32v30x_i2c.o
 .debug_frame   0x0000000000000000      0x264 build/ch32v30x_i2c.o
 .text          0x0000000000000000        0x0 build/ch32v30x_iwdg.o
 .data          0x0000000000000000        0x0 build/ch32v30x_iwdg.o
 .bss           0x0000000000000000        0x0 build/ch32v30x_iwdg.o
 .text.IWDG_WriteAccessCmd
                0x0000000000000000        0x8 build/ch32v30x_iwdg.o
 .text.IWDG_SetPrescaler
                0x0000000000000000        0x8 build/ch32v30x_iwdg.o
 .text.IWDG_SetReload
                0x0000000000000000        0x8 build/ch32v30x_iwdg.o
 .text.IWDG_ReloadCounter
                0x0000000000000000        0xe build/ch32v30x_iwdg.o
 .text.IWDG_Enable
                0x0000000000000000        0xe build/ch32v30x_iwdg.o
 .text.IWDG_GetFlagStatus
                0x0000000000000000        0xe build/ch32v30x_iwdg.o
 .debug_info    0x0000000000000000      0xab4 build/ch32v30x_iwdg.o
 .debug_abbrev  0x0000000000000000      0x282 build/ch32v30x_iwdg.o
 .debug_loc     0x0000000000000000       0x68 build/ch32v30x_iwdg.o
 .debug_aranges
                0x0000000000000000       0x48 build/ch32v30x_iwdg.o
 .debug_ranges  0x0000000000000000       0x38 build/ch32v30x_iwdg.o
 .debug_line    0x0000000000000000      0x33f build/ch32v30x_iwdg.o
 .debug_str     0x0000000000000000      0x699 build/ch32v30x_iwdg.o
 .comment       0x0000000000000000       0x34 build/ch32v30x_iwdg.o
 .debug_frame   0x0000000000000000       0x70 build/ch32v30x_iwdg.o
 .text          0x0000000000000000        0x0 build/ch32v30x_misc.o
 .data          0x0000000000000000        0x0 build/ch32v30x_misc.o
 .bss           0x0000000000000000        0x0 build/ch32v30x_misc.o
 .text.NVIC_PriorityGroupConfig
                0x0000000000000000        0xa build/ch32v30x_misc.o
 .text.NVIC_Init
                0x0000000000000000       0xaa build/ch32v30x_misc.o
 .bss.NVIC_Priority_Group
                0x0000000000000000        0x4 build/ch32v30x_misc.o
 .debug_info    0x0000000000000000      0xf72 build/ch32v30x_misc.o
 .debug_abbrev  0x0000000000000000      0x2fb build/ch32v30x_misc.o
 .debug_loc     0x0000000000000000       0xce build/ch32v30x_misc.o
 .debug_aranges
                0x0000000000000000       0x28 build/ch32v30x_misc.o
 .debug_ranges  0x0000000000000000       0x48 build/ch32v30x_misc.o
 .debug_line    0x0000000000000000      0x45f build/ch32v30x_misc.o
 .debug_str     0x0000000000000000      0xcc5 build/ch32v30x_misc.o
 .comment       0x0000000000000000       0x34 build/ch32v30x_misc.o
 .debug_frame   0x0000000000000000       0x30 build/ch32v30x_misc.o
 .text          0x0000000000000000        0x0 build/ch32v30x_opa.o
 .data          0x0000000000000000        0x0 build/ch32v30x_opa.o
 .bss           0x0000000000000000        0x0 build/ch32v30x_opa.o
 .text.OPA_DeInit
                0x0000000000000000        0xa build/ch32v30x_opa.o
 .text.OPA_Init
                0x0000000000000000       0x36 build/ch32v30x_opa.o
 .text.OPA_StructInit
                0x0000000000000000       0x12 build/ch32v30x_opa.o
 .text.OPA_Cmd  0x0000000000000000       0x2c build/ch32v30x_opa.o
 .debug_info    0x0000000000000000      0xb28 build/ch32v30x_opa.o
 .debug_abbrev  0x0000000000000000      0x252 build/ch32v30x_opa.o
 .debug_loc     0x0000000000000000       0x56 build/ch32v30x_opa.o
 .debug_aranges
                0x0000000000000000       0x38 build/ch32v30x_opa.o
 .debug_ranges  0x0000000000000000       0x28 build/ch32v30x_opa.o
 .debug_line    0x0000000000000000      0x3ec build/ch32v30x_opa.o
 .debug_str     0x0000000000000000      0x6b5 build/ch32v30x_opa.o
 .comment       0x0000000000000000       0x34 build/ch32v30x_opa.o
 .debug_frame   0x0000000000000000       0x50 build/ch32v30x_opa.o
 .text          0x0000000000000000        0x0 build/ch32v30x_pwr.o
 .data          0x0000000000000000        0x0 build/ch32v30x_pwr.o
 .bss           0x0000000000000000        0x0 build/ch32v30x_pwr.o
 .text.PWR_DeInit
                0x0000000000000000       0x2c build/ch32v30x_pwr.o
 .text.PWR_BackupAccessCmd
                0x0000000000000000       0x16 build/ch32v30x_pwr.o
 .text.PWR_PVDCmd
                0x0000000000000000       0x14 build/ch32v30x_pwr.o
 .text.PWR_PVDLevelConfig
                0x0000000000000000       0x10 build/ch32v30x_pwr.o
 .text.PWR_WakeUpPinCmd
                0x0000000000000000       0x16 build/ch32v30x_pwr.o
 .text.PWR_EnterSTOPMode
                0x0000000000000000       0x68 build/ch32v30x_pwr.o
 .text.PWR_EnterSTANDBYMode
                0x0000000000000000       0x34 build/ch32v30x_pwr.o
 .text.PWR_GetFlagStatus
                0x0000000000000000        0xe build/ch32v30x_pwr.o
 .text.PWR_ClearFlag
                0x0000000000000000        0xe build/ch32v30x_pwr.o
 .text.PWR_EnterSTANDBYMode_RAM
                0x0000000000000000       0x30 build/ch32v30x_pwr.o
 .text.PWR_EnterSTANDBYMode_RAM_LV
                0x0000000000000000       0x30 build/ch32v30x_pwr.o
 .text.PWR_EnterSTANDBYMode_RAM_VBAT_EN
                0x0000000000000000       0x30 build/ch32v30x_pwr.o
 .text.PWR_EnterSTANDBYMode_RAM_LV_VBAT_EN
                0x0000000000000000       0x30 build/ch32v30x_pwr.o
 .text.PWR_EnterSTOPMode_RAM_LV
                0x0000000000000000       0x6e build/ch32v30x_pwr.o
 .debug_info    0x0000000000000000      0xf91 build/ch32v30x_pwr.o
 .debug_abbrev  0x0000000000000000      0x384 build/ch32v30x_pwr.o
 .debug_loc     0x0000000000000000      0x289 build/ch32v30x_pwr.o
 .debug_aranges
                0x0000000000000000       0x88 build/ch32v30x_pwr.o
 .debug_ranges  0x0000000000000000       0xa8 build/ch32v30x_pwr.o
 .debug_line    0x0000000000000000      0x9ef build/ch32v30x_pwr.o
 .debug_str     0x0000000000000000      0x847 build/ch32v30x_pwr.o
 .comment       0x0000000000000000       0x34 build/ch32v30x_pwr.o
 .debug_frame   0x0000000000000000       0xfc build/ch32v30x_pwr.o
 .text          0x0000000000000000        0x0 build/ch32v30x_rcc.o
 .data          0x0000000000000000        0x0 build/ch32v30x_rcc.o
 .bss           0x0000000000000000        0x0 build/ch32v30x_rcc.o
 .text.RCC_DeInit
                0x0000000000000000       0x52 build/ch32v30x_rcc.o
 .text.RCC_HSEConfig
                0x0000000000000000       0x3c build/ch32v30x_rcc.o
 .text.RCC_AdjustHSICalibrationValue
                0x0000000000000000       0x12 build/ch32v30x_rcc.o
 .text.RCC_HSICmd
                0x0000000000000000       0x14 build/ch32v30x_rcc.o
 .text.RCC_PLLConfig
                0x0000000000000000       0x2e build/ch32v30x_rcc.o
 .text.RCC_PLLCmd
                0x0000000000000000       0x24 build/ch32v30x_rcc.o
 .text.RCC_SYSCLKConfig
                0x0000000000000000        0xe build/ch32v30x_rcc.o
 .text.RCC_GetSYSCLKSource
                0x0000000000000000        0xa build/ch32v30x_rcc.o
 .text.RCC_HCLKConfig
                0x0000000000000000       0x10 build/ch32v30x_rcc.o
 .text.RCC_PCLK1Config
                0x0000000000000000       0x10 build/ch32v30x_rcc.o
 .text.RCC_PCLK2Config
                0x0000000000000000       0x16 build/ch32v30x_rcc.o
 .text.RCC_ITConfig
                0x0000000000000000       0x16 build/ch32v30x_rcc.o
 .text.RCC_ADCCLKConfig
                0x0000000000000000       0x12 build/ch32v30x_rcc.o
 .text.RCC_LSEConfig
                0x0000000000000000       0x28 build/ch32v30x_rcc.o
 .text.RCC_LSICmd
                0x0000000000000000       0x14 build/ch32v30x_rcc.o
 .text.RCC_RTCCLKConfig
                0x0000000000000000        0xc build/ch32v30x_rcc.o
 .text.RCC_RTCCLKCmd
                0x0000000000000000       0x20 build/ch32v30x_rcc.o
 .text.RCC_APB2PeriphResetCmd
                0x0000000000000000       0x1e build/ch32v30x_rcc.o
 .text.RCC_APB1PeriphResetCmd
                0x0000000000000000       0x1e build/ch32v30x_rcc.o
 .text.RCC_BackupResetCmd
                0x0000000000000000       0x20 build/ch32v30x_rcc.o
 .text.RCC_ClockSecuritySystemCmd
                0x0000000000000000       0x24 build/ch32v30x_rcc.o
 .text.RCC_MCOConfig
                0x0000000000000000        0x8 build/ch32v30x_rcc.o
 .text.RCC_WaitForHSEStartUp
                0x0000000000000000       0x42 build/ch32v30x_rcc.o
 .text.RCC_ClearFlag
                0x0000000000000000       0x10 build/ch32v30x_rcc.o
 .text.RCC_GetITStatus
                0x0000000000000000        0xe build/ch32v30x_rcc.o
 .text.RCC_ClearITPendingBit
                0x0000000000000000        0x8 build/ch32v30x_rcc.o
 .text.RCC_PREDIV1Config
                0x0000000000000000       0x14 build/ch32v30x_rcc.o
 .text.RCC_PLL2Config
                0x0000000000000000       0x14 build/ch32v30x_rcc.o
 .text.RCC_PLL2Cmd
                0x0000000000000000       0x24 build/ch32v30x_rcc.o
 .text.RCC_OTGFSCLKConfig
                0x0000000000000000       0x1a build/ch32v30x_rcc.o
 .text.RCC_I2S2CLKConfig
                0x0000000000000000       0x18 build/ch32v30x_rcc.o
 .text.RCC_I2S3CLKConfig
                0x0000000000000000       0x1a build/ch32v30x_rcc.o
 .text.RCC_ADCCLKADJcmd
                0x0000000000000000       0x18 build/ch32v30x_rcc.o
 .text.RCC_RNGCLKConfig
                0x0000000000000000       0x1a build/ch32v30x_rcc.o
 .text.RCC_ETH1GCLKConfig
                0x0000000000000000       0x1a build/ch32v30x_rcc.o
 .text.RCC_ETH1G_125Mcmd
                0x0000000000000000       0x24 build/ch32v30x_rcc.o
 .text.RCC_USBHSConfig
                0x0000000000000000       0x1a build/ch32v30x_rcc.o
 .text.RCC_USBHSPLLCLKConfig
                0x0000000000000000       0x1a build/ch32v30x_rcc.o
 .text.RCC_USBHSPLLCKREFCLKConfig
                0x0000000000000000       0x1a build/ch32v30x_rcc.o
 .text.RCC_USBHSPHYPLLALIVEcmd
                0x0000000000000000       0x24 build/ch32v30x_rcc.o
 .text.RCC_USBCLK48MConfig
                0x0000000000000000       0x16 build/ch32v30x_rcc.o
 .text          0x0000000000000000        0x0 build/ch32v30x_rng.o
 .data          0x0000000000000000        0x0 build/ch32v30x_rng.o
 .bss           0x0000000000000000        0x0 build/ch32v30x_rng.o
 .text.RNG_Cmd  0x0000000000000000       0x18 build/ch32v30x_rng.o
 .text.RNG_GetRandomNumber
                0x0000000000000000        0xa build/ch32v30x_rng.o
 .text.RNG_ITConfig
                0x0000000000000000       0x18 build/ch32v30x_rng.o
 .text.RNG_GetFlagStatus
                0x0000000000000000       0x12 build/ch32v30x_rng.o
 .text.RNG_ClearFlag
                0x0000000000000000       0x10 build/ch32v30x_rng.o
 .text.RNG_GetITStatus
                0x0000000000000000       0x18 build/ch32v30x_rng.o
 .text.RNG_ClearITPendingBit
                0x0000000000000000       0x12 build/ch32v30x_rng.o
 .debug_info    0x0000000000000000      0xb02 build/ch32v30x_rng.o
 .debug_abbrev  0x0000000000000000      0x2c8 build/ch32v30x_rng.o
 .debug_loc     0x0000000000000000       0xa8 build/ch32v30x_rng.o
 .debug_aranges
                0x0000000000000000       0x48 build/ch32v30x_rng.o
 .debug_ranges  0x0000000000000000       0x38 build/ch32v30x_rng.o
 .debug_line    0x0000000000000000      0x3b9 build/ch32v30x_rng.o
 .debug_str     0x0000000000000000      0x686 build/ch32v30x_rng.o
 .comment       0x0000000000000000       0x34 build/ch32v30x_rng.o
 .debug_frame   0x0000000000000000       0x8c build/ch32v30x_rng.o
 .text          0x0000000000000000        0x0 build/ch32v30x_rtc.o
 .data          0x0000000000000000        0x0 build/ch32v30x_rtc.o
 .bss           0x0000000000000000        0x0 build/ch32v30x_rtc.o
 .text.RTC_ITConfig
                0x0000000000000000       0x1a build/ch32v30x_rtc.o
 .text.RTC_EnterConfigMode
                0x0000000000000000       0x12 build/ch32v30x_rtc.o
 .text.RTC_ExitConfigMode
                0x0000000000000000       0x18 build/ch32v30x_rtc.o
 .text.RTC_GetCounter
                0x0000000000000000       0x36 build/ch32v30x_rtc.o
 .text.RTC_SetCounter
                0x0000000000000000       0x3c build/ch32v30x_rtc.o
 .text.RTC_SetPrescaler
                0x0000000000000000       0x3e build/ch32v30x_rtc.o
 .text.RTC_SetAlarm
                0x0000000000000000       0x3c build/ch32v30x_rtc.o
 .text.RTC_GetDivider
                0x0000000000000000       0x18 build/ch32v30x_rtc.o
 .text.RTC_WaitForLastTask
                0x0000000000000000       0x10 build/ch32v30x_rtc.o
 .text.RTC_WaitForSynchro
                0x0000000000000000       0x24 build/ch32v30x_rtc.o
 .text.RTC_GetFlagStatus
                0x0000000000000000       0x12 build/ch32v30x_rtc.o
 .text.RTC_ClearFlag
                0x0000000000000000       0x14 build/ch32v30x_rtc.o
 .text.RTC_GetITStatus
                0x0000000000000000       0x20 build/ch32v30x_rtc.o
 .text.RTC_ClearITPendingBit
                0x0000000000000000       0x18 build/ch32v30x_rtc.o
 .debug_info    0x0000000000000000      0xd4f build/ch32v30x_rtc.o
 .debug_abbrev  0x0000000000000000      0x2c0 build/ch32v30x_rtc.o
 .debug_loc     0x0000000000000000      0x272 build/ch32v30x_rtc.o
 .debug_aranges
                0x0000000000000000       0x80 build/ch32v30x_rtc.o
 .debug_ranges  0x0000000000000000       0x70 build/ch32v30x_rtc.o
 .debug_line    0x0000000000000000      0x735 build/ch32v30x_rtc.o
 .debug_str     0x0000000000000000      0x7e6 build/ch32v30x_rtc.o
 .comment       0x0000000000000000       0x34 build/ch32v30x_rtc.o
 .debug_frame   0x0000000000000000      0x12c build/ch32v30x_rtc.o
 .text          0x0000000000000000        0x0 build/ch32v30x_sdio.o
 .data          0x0000000000000000        0x0 build/ch32v30x_sdio.o
 .bss           0x0000000000000000        0x0 build/ch32v30x_sdio.o
 .text.SDIO_DeInit
                0x0000000000000000       0x30 build/ch32v30x_sdio.o
 .text.SDIO_Init
                0x0000000000000000       0x2a build/ch32v30x_sdio.o
 .text.SDIO_StructInit
                0x0000000000000000       0x1a build/ch32v30x_sdio.o
 .text.SDIO_ClockCmd
                0x0000000000000000       0x16 build/ch32v30x_sdio.o
 .text.SDIO_SetPowerState
                0x0000000000000000       0x12 build/ch32v30x_sdio.o
 .text.SDIO_GetPowerState
                0x0000000000000000        0xa build/ch32v30x_sdio.o
 .text.SDIO_ITConfig
                0x0000000000000000       0x1e build/ch32v30x_sdio.o
 .text.SDIO_DMACmd
                0x0000000000000000       0x14 build/ch32v30x_sdio.o
 .text.SDIO_SendCommand
                0x0000000000000000       0x22 build/ch32v30x_sdio.o
 .text.SDIO_CmdStructInit
                0x0000000000000000       0x16 build/ch32v30x_sdio.o
 .text.SDIO_GetCommandResponse
                0x0000000000000000        0xc build/ch32v30x_sdio.o
 .text.SDIO_GetResponse
                0x0000000000000000       0x16 build/ch32v30x_sdio.o
 .text.SDIO_DataConfig
                0x0000000000000000       0x26 build/ch32v30x_sdio.o
 .text.SDIO_DataStructInit
                0x0000000000000000       0x1a build/ch32v30x_sdio.o
 .text.SDIO_GetDataCounter
                0x0000000000000000        0x8 build/ch32v30x_sdio.o
 .text.SDIO_ReadData
                0x0000000000000000        0xa build/ch32v30x_sdio.o
 .text.SDIO_WriteData
                0x0000000000000000        0xa build/ch32v30x_sdio.o
 .text.SDIO_GetFIFOCount
                0x0000000000000000        0x8 build/ch32v30x_sdio.o
 .text.SDIO_StartSDIOReadWait
                0x0000000000000000       0x16 build/ch32v30x_sdio.o
 .text.SDIO_StopSDIOReadWait
                0x0000000000000000       0x16 build/ch32v30x_sdio.o
 .text.SDIO_SetSDIOReadWaitMode
                0x0000000000000000       0x16 build/ch32v30x_sdio.o
 .text.SDIO_SetSDIOOperation
                0x0000000000000000       0x1e build/ch32v30x_sdio.o
 .text.SDIO_SendSDIOSuspendCmd
                0x0000000000000000       0x1e build/ch32v30x_sdio.o
 .text.SDIO_CommandCompletionCmd
                0x0000000000000000       0x20 build/ch32v30x_sdio.o
 .text.SDIO_CEATAITCmd
                0x0000000000000000       0x20 build/ch32v30x_sdio.o
 .text.SDIO_SendCEATACmd
                0x0000000000000000       0x20 build/ch32v30x_sdio.o
 .text.SDIO_GetFlagStatus
                0x0000000000000000        0xe build/ch32v30x_sdio.o
 .text.SDIO_ClearFlag
                0x0000000000000000        0x8 build/ch32v30x_sdio.o
 .text.SDIO_GetITStatus
                0x0000000000000000       0x18 build/ch32v30x_sdio.o
 .text.SDIO_ClearITPendingBit
                0x0000000000000000        0x8 build/ch32v30x_sdio.o
 .debug_info    0x0000000000000000     0x10d1 build/ch32v30x_sdio.o
 .debug_abbrev  0x0000000000000000      0x385 build/ch32v30x_sdio.o
 .debug_loc     0x0000000000000000      0x1bb build/ch32v30x_sdio.o
 .debug_aranges
                0x0000000000000000       0xf8 build/ch32v30x_sdio.o
 .debug_ranges  0x0000000000000000       0xe8 build/ch32v30x_sdio.o
 .debug_line    0x0000000000000000      0xc28 build/ch32v30x_sdio.o
 .debug_str     0x0000000000000000      0xa58 build/ch32v30x_sdio.o
 .comment       0x0000000000000000       0x34 build/ch32v30x_sdio.o
 .debug_frame   0x0000000000000000      0x204 build/ch32v30x_sdio.o
 .text          0x0000000000000000        0x0 build/ch32v30x_spi.o
 .data          0x0000000000000000        0x0 build/ch32v30x_spi.o
 .bss           0x0000000000000000        0x0 build/ch32v30x_spi.o
 .text.SPI_I2S_DeInit
                0x0000000000000000       0x70 build/ch32v30x_spi.o
 .text.SPI_Init
                0x0000000000000000       0x3e build/ch32v30x_spi.o
 .text.I2S_Init
                0x0000000000000000       0xd4 build/ch32v30x_spi.o
 .text.SPI_StructInit
                0x0000000000000000       0x22 build/ch32v30x_spi.o
 .text.I2S_StructInit
                0x0000000000000000       0x12 build/ch32v30x_spi.o
 .text.SPI_Cmd  0x0000000000000000       0x1a build/ch32v30x_spi.o
 .text.I2S_Cmd  0x0000000000000000       0x1a build/ch32v30x_spi.o
 .text.SPI_I2S_ITConfig
                0x0000000000000000       0x1e build/ch32v30x_spi.o
 .text.SPI_I2S_DMACmd
                0x0000000000000000       0x12 build/ch32v30x_spi.o
 .text.SPI_I2S_SendData
                0x0000000000000000        0x4 build/ch32v30x_spi.o
 .text.SPI_I2S_ReceiveData
                0x0000000000000000        0x4 build/ch32v30x_spi.o
 .text.SPI_NSSInternalSoftwareConfig
                0x0000000000000000       0x24 build/ch32v30x_spi.o
 .text.SPI_SSOutputCmd
                0x0000000000000000       0x18 build/ch32v30x_spi.o
 .text.SPI_DataSizeConfig
                0x0000000000000000       0x14 build/ch32v30x_spi.o
 .text.SPI_TransmitCRC
                0x0000000000000000        0xa build/ch32v30x_spi.o
 .text.SPI_CalculateCRC
                0x0000000000000000       0x16 build/ch32v30x_spi.o
 .text.SPI_GetCRC
                0x0000000000000000       0x12 build/ch32v30x_spi.o
 .text.SPI_GetCRCPolynomial
                0x0000000000000000        0x4 build/ch32v30x_spi.o
 .text.SPI_BiDirectionalLineConfig
                0x0000000000000000       0x1a build/ch32v30x_spi.o
 .text.SPI_I2S_GetFlagStatus
                0x0000000000000000        0xa build/ch32v30x_spi.o
 .text.SPI_I2S_ClearFlag
                0x0000000000000000        0xc build/ch32v30x_spi.o
 .text.SPI_I2S_GetITStatus
                0x0000000000000000       0x28 build/ch32v30x_spi.o
 .text.SPI_I2S_ClearITPendingBit
                0x0000000000000000       0x14 build/ch32v30x_spi.o
 .debug_info    0x0000000000000000     0x12cd build/ch32v30x_spi.o
 .debug_abbrev  0x0000000000000000      0x32e build/ch32v30x_spi.o
 .debug_loc     0x0000000000000000      0x594 build/ch32v30x_spi.o
 .debug_aranges
                0x0000000000000000       0xd0 build/ch32v30x_spi.o
 .debug_ranges  0x0000000000000000       0xc0 build/ch32v30x_spi.o
 .debug_line    0x0000000000000000      0xcae build/ch32v30x_spi.o
 .debug_str     0x0000000000000000      0xa89 build/ch32v30x_spi.o
 .comment       0x0000000000000000       0x34 build/ch32v30x_spi.o
 .debug_frame   0x0000000000000000      0x1a4 build/ch32v30x_spi.o
 .text          0x0000000000000000        0x0 build/ch32v30x_tim.o
 .data          0x0000000000000000        0x0 build/ch32v30x_tim.o
 .bss           0x0000000000000000        0x0 build/ch32v30x_tim.o
 .text.TI1_Config
                0x0000000000000000       0x82 build/ch32v30x_tim.o
 .text.TI2_Config
                0x0000000000000000       0x9a build/ch32v30x_tim.o
 .text.TIM_DeInit
                0x0000000000000000      0x138 build/ch32v30x_tim.o
 .text.TIM_OC1Init
                0x0000000000000000       0x82 build/ch32v30x_tim.o
 .text.TIM_OC2Init
                0x0000000000000000       0xae build/ch32v30x_tim.o
 .text.TIM_OC3Init
                0x0000000000000000       0xac build/ch32v30x_tim.o
 .text.TIM_OC4Init
                0x0000000000000000       0x88 build/ch32v30x_tim.o
 .text.TIM_BDTRConfig
                0x0000000000000000       0x20 build/ch32v30x_tim.o
 .text.TIM_TimeBaseStructInit
                0x0000000000000000       0x16 build/ch32v30x_tim.o
 .text.TIM_OCStructInit
                0x0000000000000000       0x22 build/ch32v30x_tim.o
 .text.TIM_ICStructInit
                0x0000000000000000       0x16 build/ch32v30x_tim.o
 .text.TIM_BDTRStructInit
                0x0000000000000000       0x1e build/ch32v30x_tim.o
 .text.TIM_CtrlPWMOutputs
                0x0000000000000000       0x16 build/ch32v30x_tim.o
 .text.TIM_GenerateEvent
                0x0000000000000000        0x4 build/ch32v30x_tim.o
 .text.TIM_DMAConfig
                0x0000000000000000        0x8 build/ch32v30x_tim.o
 .text.TIM_DMACmd
                0x0000000000000000       0x18 build/ch32v30x_tim.o
 .text.TIM_InternalClockConfig
                0x0000000000000000       0x10 build/ch32v30x_tim.o
 .text.TIM_ITRxExternalClockConfig
                0x0000000000000000       0x18 build/ch32v30x_tim.o
 .text.TIM_TIxExternalClockConfig
                0x0000000000000000       0x48 build/ch32v30x_tim.o
 .text.TIM_ETRConfig
                0x0000000000000000       0x16 build/ch32v30x_tim.o
 .text.TIM_ETRClockMode1Config
                0x0000000000000000       0x2a build/ch32v30x_tim.o
 .text.TIM_ETRClockMode2Config
                0x0000000000000000       0x22 build/ch32v30x_tim.o
 .text.TIM_PrescalerConfig
                0x0000000000000000        0x6 build/ch32v30x_tim.o
 .text.TIM_CounterModeConfig
                0x0000000000000000       0x10 build/ch32v30x_tim.o
 .text.TIM_SelectInputTrigger
                0x0000000000000000       0x10 build/ch32v30x_tim.o
 .text.TIM_EncoderInterfaceConfig
                0x0000000000000000       0x3c build/ch32v30x_tim.o
 .text.TIM_ForcedOC1Config
                0x0000000000000000       0x10 build/ch32v30x_tim.o
 .text.TIM_ForcedOC2Config
                0x0000000000000000       0x14 build/ch32v30x_tim.o
 .text.TIM_ForcedOC3Config
                0x0000000000000000       0x10 build/ch32v30x_tim.o
 .text.TIM_ForcedOC4Config
                0x0000000000000000       0x14 build/ch32v30x_tim.o
 .text.TIM_ARRPreloadConfig
                0x0000000000000000       0x1a build/ch32v30x_tim.o
 .text.TIM_SelectCOM
                0x0000000000000000       0x18 build/ch32v30x_tim.o
 .text.TIM_SelectCCDMA
                0x0000000000000000       0x18 build/ch32v30x_tim.o
 .text.TIM_CCPreloadControl
                0x0000000000000000       0x18 build/ch32v30x_tim.o
 .text.TIM_OC1PreloadConfig
                0x0000000000000000        0xe build/ch32v30x_tim.o
 .text.TIM_OC2PreloadConfig
                0x0000000000000000       0x16 build/ch32v30x_tim.o
 .text.TIM_OC3PreloadConfig
                0x0000000000000000        0xe build/ch32v30x_tim.o
 .text.TIM_OC4PreloadConfig
                0x0000000000000000       0x16 build/ch32v30x_tim.o
 .text.TIM_OC1FastConfig
                0x0000000000000000        0xe build/ch32v30x_tim.o
 .text.TIM_OC2FastConfig
                0x0000000000000000       0x16 build/ch32v30x_tim.o
 .text.TIM_OC3FastConfig
                0x0000000000000000        0xe build/ch32v30x_tim.o
 .text.TIM_OC4FastConfig
                0x0000000000000000       0x16 build/ch32v30x_tim.o
 .text.TIM_ClearOC1Ref
                0x0000000000000000       0x10 build/ch32v30x_tim.o
 .text.TIM_ClearOC2Ref
                0x0000000000000000       0x12 build/ch32v30x_tim.o
 .text.TIM_ClearOC3Ref
                0x0000000000000000       0x10 build/ch32v30x_tim.o
 .text.TIM_ClearOC4Ref
                0x0000000000000000       0x12 build/ch32v30x_tim.o
 .text.TIM_OC1PolarityConfig
                0x0000000000000000        0xe build/ch32v30x_tim.o
 .text.TIM_OC1NPolarityConfig
                0x0000000000000000        0xe build/ch32v30x_tim.o
 .text.TIM_OC2PolarityConfig
                0x0000000000000000       0x16 build/ch32v30x_tim.o
 .text.TIM_OC2NPolarityConfig
                0x0000000000000000       0x16 build/ch32v30x_tim.o
 .text.TIM_OC3PolarityConfig
                0x0000000000000000       0x16 build/ch32v30x_tim.o
 .text.TIM_OC3NPolarityConfig
                0x0000000000000000       0x16 build/ch32v30x_tim.o
 .text.TIM_OC4PolarityConfig
                0x0000000000000000       0x14 build/ch32v30x_tim.o
 .text.TIM_CCxCmd
                0x0000000000000000       0x20 build/ch32v30x_tim.o
 .text.TIM_CCxNCmd
                0x0000000000000000       0x20 build/ch32v30x_tim.o
 .text.TIM_SelectOCxM
                0x0000000000000000       0x4c build/ch32v30x_tim.o
 .text.TIM_UpdateDisableConfig
                0x0000000000000000       0x18 build/ch32v30x_tim.o
 .text.TIM_UpdateRequestConfig
                0x0000000000000000       0x18 build/ch32v30x_tim.o
 .text.TIM_SelectHallSensor
                0x0000000000000000       0x1a build/ch32v30x_tim.o
 .text.TIM_SelectOnePulseMode
                0x0000000000000000       0x16 build/ch32v30x_tim.o
 .text.TIM_SelectOutputTrigger
                0x0000000000000000       0x18 build/ch32v30x_tim.o
 .text.TIM_SelectSlaveMode
                0x0000000000000000       0x16 build/ch32v30x_tim.o
 .text.TIM_SelectMasterSlaveMode
                0x0000000000000000       0x18 build/ch32v30x_tim.o
 .text.TIM_SetCounter
                0x0000000000000000        0x4 build/ch32v30x_tim.o
 .text.TIM_SetAutoreload
                0x0000000000000000        0x4 build/ch32v30x_tim.o
 .text.TIM_SetCompare1
                0x0000000000000000        0x4 build/ch32v30x_tim.o
 .text.TIM_SetCompare2
                0x0000000000000000        0x4 build/ch32v30x_tim.o
 .text.TIM_SetCompare3
                0x0000000000000000        0x4 build/ch32v30x_tim.o
 .text.TIM_SetCompare4
                0x0000000000000000        0x6 build/ch32v30x_tim.o
 .text.TIM_SetIC1Prescaler
                0x0000000000000000       0x16 build/ch32v30x_tim.o
 .text.TIM_SetIC2Prescaler
                0x0000000000000000       0x1a build/ch32v30x_tim.o
 .text.TIM_PWMIConfig
                0x0000000000000000       0xa4 build/ch32v30x_tim.o
 .text.TIM_SetIC3Prescaler
                0x0000000000000000       0x16 build/ch32v30x_tim.o
 .text.TIM_SetIC4Prescaler
                0x0000000000000000       0x1a build/ch32v30x_tim.o
 .text.TIM_ICInit
                0x0000000000000000      0x1b8 build/ch32v30x_tim.o
 .text.TIM_SetClockDivision
                0x0000000000000000       0x18 build/ch32v30x_tim.o
 .text.TIM_GetCapture1
                0x0000000000000000        0x4 build/ch32v30x_tim.o
 .text.TIM_GetCapture2
                0x0000000000000000        0x4 build/ch32v30x_tim.o
 .text.TIM_GetCapture3
                0x0000000000000000        0x4 build/ch32v30x_tim.o
 .text.TIM_GetCapture4
                0x0000000000000000        0x6 build/ch32v30x_tim.o
 .text.TIM_GetCounter
                0x0000000000000000        0x4 build/ch32v30x_tim.o
 .text.TIM_GetPrescaler
                0x0000000000000000        0x4 build/ch32v30x_tim.o
 .text.TIM_GetFlagStatus
                0x0000000000000000        0xa build/ch32v30x_tim.o
 .text.TIM_ClearFlag
                0x0000000000000000        0xc build/ch32v30x_tim.o
 .text.TIM_GetITStatus
                0x0000000000000000       0x18 build/ch32v30x_tim.o
 .text          0x0000000000000000        0x0 build/ch32v30x_usart.o
 .data          0x0000000000000000        0x0 build/ch32v30x_usart.o
 .bss           0x0000000000000000        0x0 build/ch32v30x_usart.o
 .text.USART_DeInit
                0x0000000000000000      0x112 build/ch32v30x_usart.o
 .text.USART_StructInit
                0x0000000000000000       0x18 build/ch32v30x_usart.o
 .text.USART_ClockInit
                0x0000000000000000       0x1e build/ch32v30x_usart.o
 .text.USART_ClockStructInit
                0x0000000000000000       0x12 build/ch32v30x_usart.o
 .text.USART_ITConfig
                0x0000000000000000       0x36 build/ch32v30x_usart.o
 .text.USART_DMACmd
                0x0000000000000000       0x12 build/ch32v30x_usart.o
 .text.USART_SetAddress
                0x0000000000000000       0x16 build/ch32v30x_usart.o
 .text.USART_WakeUpConfig
                0x0000000000000000       0x14 build/ch32v30x_usart.o
 .text.USART_ReceiverWakeUpCmd
                0x0000000000000000       0x18 build/ch32v30x_usart.o
 .text.USART_LINBreakDetectLengthConfig
                0x0000000000000000       0x18 build/ch32v30x_usart.o
 .text.USART_LINCmd
                0x0000000000000000       0x16 build/ch32v30x_usart.o
 .text.USART_ReceiveData
                0x0000000000000000        0x8 build/ch32v30x_usart.o
 .text.USART_SendBreak
                0x0000000000000000        0xa build/ch32v30x_usart.o
 .text.USART_SetGuardTime
                0x0000000000000000       0x12 build/ch32v30x_usart.o
 .text.USART_SetPrescaler
                0x0000000000000000       0x18 build/ch32v30x_usart.o
 .text.USART_SmartCardCmd
                0x0000000000000000       0x1a build/ch32v30x_usart.o
 .text.USART_SmartCardNACKCmd
                0x0000000000000000       0x18 build/ch32v30x_usart.o
 .text.USART_HalfDuplexCmd
                0x0000000000000000       0x18 build/ch32v30x_usart.o
 .text.USART_OverSampling8Cmd
                0x0000000000000000       0x12 build/ch32v30x_usart.o
 .text.USART_OneBitMethodCmd
                0x0000000000000000       0x1e build/ch32v30x_usart.o
 .text.USART_IrDAConfig
                0x0000000000000000       0x16 build/ch32v30x_usart.o
 .text.USART_IrDACmd
                0x0000000000000000       0x18 build/ch32v30x_usart.o
 .text.USART_ClearFlag
                0x0000000000000000        0xc build/ch32v30x_usart.o
 .text.USART_GetITStatus
                0x0000000000000000       0x3c build/ch32v30x_usart.o
 .text.USART_ClearITPendingBit
                0x0000000000000000       0x14 build/ch32v30x_usart.o
 .text          0x0000000000000000        0x0 build/ch32v30x_wwdg.o
 .data          0x0000000000000000        0x0 build/ch32v30x_wwdg.o
 .bss           0x0000000000000000        0x0 build/ch32v30x_wwdg.o
 .text.WWDG_DeInit
                0x0000000000000000       0x2e build/ch32v30x_wwdg.o
 .text.WWDG_SetPrescaler
                0x0000000000000000       0x14 build/ch32v30x_wwdg.o
 .text.WWDG_SetWindowValue
                0x0000000000000000       0x26 build/ch32v30x_wwdg.o
 .text.WWDG_EnableIT
                0x0000000000000000       0x12 build/ch32v30x_wwdg.o
 .text.WWDG_SetCounter
                0x0000000000000000        0xe build/ch32v30x_wwdg.o
 .text.WWDG_Enable
                0x0000000000000000        0xe build/ch32v30x_wwdg.o
 .text.WWDG_GetFlagStatus
                0x0000000000000000        0xa build/ch32v30x_wwdg.o
 .text.WWDG_ClearFlag
                0x0000000000000000        0xa build/ch32v30x_wwdg.o
 .debug_info    0x0000000000000000      0xb28 build/ch32v30x_wwdg.o
 .debug_abbrev  0x0000000000000000      0x29d build/ch32v30x_wwdg.o
 .debug_loc     0x0000000000000000       0xae build/ch32v30x_wwdg.o
 .debug_aranges
                0x0000000000000000       0x58 build/ch32v30x_wwdg.o
 .debug_ranges  0x0000000000000000       0x48 build/ch32v30x_wwdg.o
 .debug_line    0x0000000000000000      0x427 build/ch32v30x_wwdg.o
 .debug_str     0x0000000000000000      0x6ac build/ch32v30x_wwdg.o
 .comment       0x0000000000000000       0x34 build/ch32v30x_wwdg.o
 .debug_frame   0x0000000000000000       0xa4 build/ch32v30x_wwdg.o
 .text          0x0000000000000000        0x0 build/startup_ch32v30x_D8C.o
 .data          0x0000000000000000        0x0 build/startup_ch32v30x_D8C.o
 .bss           0x0000000000000000        0x0 build/startup_ch32v30x_D8C.o
 .text          0x0000000000000000        0x0 NetLib/libwchnet.a(eth_api.o)
 .data          0x0000000000000000        0x0 NetLib/libwchnet.a(eth_api.o)
 .bss           0x0000000000000000        0x0 NetLib/libwchnet.a(eth_api.o)
 .text          0x0000000000000000        0x0 NetLib/libwchnet.a(ipcheck.o)
 .data          0x0000000000000000        0x0 NetLib/libwchnet.a(ipcheck.o)
 .bss           0x0000000000000000        0x0 NetLib/libwchnet.a(ipcheck.o)
 .text          0x0000000000000000        0x0 NetLib/libwchnet.a(net_dhcp.o)
 .data          0x0000000000000000        0x0 NetLib/libwchnet.a(net_dhcp.o)
 .bss           0x0000000000000000        0x0 NetLib/libwchnet.a(net_dhcp.o)
 .text.WCHNET_DHCPStart
                0x0000000000000000       0x6a NetLib/libwchnet.a(net_dhcp.o)
 .text.WCHNET_DHCPStop
                0x0000000000000000       0x36 NetLib/libwchnet.a(net_dhcp.o)
 .text.WCHNET_DHCPHandle
                0x0000000000000000       0x86 NetLib/libwchnet.a(net_dhcp.o)
 .text.WCHNET_DHCPSetHostname
                0x0000000000000000       0x24 NetLib/libwchnet.a(net_dhcp.o)
 .sbss.DHCPFlag
                0x0000000000000000        0x1 NetLib/libwchnet.a(net_dhcp.o)
 .text          0x0000000000000000        0x0 NetLib/libwchnet.a(net_dns.o)
 .data          0x0000000000000000        0x0 NetLib/libwchnet.a(net_dns.o)
 .bss           0x0000000000000000        0x0 NetLib/libwchnet.a(net_dns.o)
 .text.WCHNET_InitDNS
                0x0000000000000000       0x4c NetLib/libwchnet.a(net_dns.o)
 .text.WCHNET_DNSStop
                0x0000000000000000       0x18 NetLib/libwchnet.a(net_dns.o)
 .text.WCHNET_HostNameGetIp
                0x0000000000000000       0x20 NetLib/libwchnet.a(net_dns.o)
 .text          0x0000000000000000        0x0 NetLib/libwchnet.a(socket.o)
 .data          0x0000000000000000        0x0 NetLib/libwchnet.a(socket.o)
 .bss           0x0000000000000000        0x0 NetLib/libwchnet.a(socket.o)
 .text.MemShortCopy
                0x0000000000000000       0x1e NetLib/libwchnet.a(socket.o)
 .text.WCHNET_ConfigKeepLive
                0x0000000000000000       0x16 NetLib/libwchnet.a(socket.o)
 .text.WCHNET_SocketUdpSendTo
                0x0000000000000000       0xe6 NetLib/libwchnet.a(socket.o)
 .text.WCHNET_RetrySendUnack
                0x0000000000000000       0x3e NetLib/libwchnet.a(socket.o)
 .text.WCHNET_QueryUnack
                0x0000000000000000       0xaa NetLib/libwchnet.a(socket.o)
 .text.WCHNET_PrtSocketTCPStat
                0x0000000000000000        0x2 NetLib/libwchnet.a(socket.o)
 .text.WCHNET_SocketSetKeepLive
                0x0000000000000000       0x54 NetLib/libwchnet.a(socket.o)
 .text.WCHSocketTcpDiscon
                0x0000000000000000       0x42 NetLib/libwchnet.a(socket.o)
 .text.WCHNET_Aton
                0x0000000000000000       0x1c NetLib/libwchnet.a(socket.o)
 .text.WCHNET_Ntoa
                0x0000000000000000       0x2c NetLib/libwchnet.a(socket.o)
 .text.WCHNET_SetSocketTTL
                0x0000000000000000       0x40 NetLib/libwchnet.a(socket.o)
 .text          0x0000000000000000        0x0 NetLib/libwchnet.a(etharp.o)
 .data          0x0000000000000000        0x0 NetLib/libwchnet.a(etharp.o)
 .bss           0x0000000000000000        0x0 NetLib/libwchnet.a(etharp.o)
 .text.etharp_find_addr
                0x0000000000000000       0x50 NetLib/libwchnet.a(etharp.o)
 .text.GET_MAC  0x0000000000000000       0x68 NetLib/libwchnet.a(etharp.o)
 .text          0x0000000000000000        0x0 NetLib/libwchnet.a(ethernetif.o)
 .data          0x0000000000000000        0x0 NetLib/libwchnet.a(ethernetif.o)
 .bss           0x0000000000000000        0x0 NetLib/libwchnet.a(ethernetif.o)
 .text          0x0000000000000000        0x0 NetLib/libwchnet.a(inet.o)
 .data          0x0000000000000000        0x0 NetLib/libwchnet.a(inet.o)
 .bss           0x0000000000000000        0x0 NetLib/libwchnet.a(inet.o)
 .text.inet_ntoa
                0x0000000000000000       0x8c NetLib/libwchnet.a(inet.o)
 .text.inet_aton
                0x0000000000000000      0x160 NetLib/libwchnet.a(inet.o)
 .text.inet_addr
                0x0000000000000000       0x26 NetLib/libwchnet.a(inet.o)
 .bss.str.1794  0x0000000000000000       0x10 NetLib/libwchnet.a(inet.o)
 .text          0x0000000000000000        0x0 NetLib/libwchnet.a(ip.o)
 .data          0x0000000000000000        0x0 NetLib/libwchnet.a(ip.o)
 .bss           0x0000000000000000        0x0 NetLib/libwchnet.a(ip.o)
 .text          0x0000000000000000        0x0 NetLib/libwchnet.a(ip_addr.o)
 .data          0x0000000000000000        0x0 NetLib/libwchnet.a(ip_addr.o)
 .bss           0x0000000000000000        0x0 NetLib/libwchnet.a(ip_addr.o)
 .text          0x0000000000000000        0x0 NetLib/libwchnet.a(ip_frag.o)
 .data          0x0000000000000000        0x0 NetLib/libwchnet.a(ip_frag.o)
 .bss           0x0000000000000000        0x0 NetLib/libwchnet.a(ip_frag.o)
 .text          0x0000000000000000        0x0 NetLib/libwchnet.a(dhcp.o)
 .data          0x0000000000000000        0x0 NetLib/libwchnet.a(dhcp.o)
 .bss           0x0000000000000000        0x0 NetLib/libwchnet.a(dhcp.o)
 .text.dhcp_option_short
                0x0000000000000000       0x24 NetLib/libwchnet.a(dhcp.o)
 .text.dhcp_get_option_ptr
                0x0000000000000000       0xb6 NetLib/libwchnet.a(dhcp.o)
 .text.dhcp_get_option_long
                0x0000000000000000       0x18 NetLib/libwchnet.a(dhcp.o)
 .text.dhcp_rebind
                0x0000000000000000      0x116 NetLib/libwchnet.a(dhcp.o)
 .text.dhcp_discover
                0x0000000000000000      0x14a NetLib/libwchnet.a(dhcp.o)
 .text.dhcp_select
                0x0000000000000000      0x1b0 NetLib/libwchnet.a(dhcp.o)
 .text.dhcp_reboot
                0x0000000000000000      0x104 NetLib/libwchnet.a(dhcp.o)
 .text.dhcp_check
                0x0000000000000000       0x3a NetLib/libwchnet.a(dhcp.o)
 .text.dhcp_bind
                0x0000000000000000      0x1a0 NetLib/libwchnet.a(dhcp.o)
 .text.dhcp_free_reply
                0x0000000000000000       0x36 NetLib/libwchnet.a(dhcp.o)
 .text.dhcp_recv
                0x0000000000000000      0x38c NetLib/libwchnet.a(dhcp.o)
 .text.dhcp_inform
                0x0000000000000000       0xfa NetLib/libwchnet.a(dhcp.o)
 .text.dhcp_network_changed
                0x0000000000000000       0x5c NetLib/libwchnet.a(dhcp.o)
 .text.dhcp_renew
                0x0000000000000000      0x112 NetLib/libwchnet.a(dhcp.o)
 .text.dhcp_coarse_tmr
                0x0000000000000000       0x70 NetLib/libwchnet.a(dhcp.o)
 .text.dhcp_release
                0x0000000000000000      0x118 NetLib/libwchnet.a(dhcp.o)
 .text.dhcp_fine_tmr
                0x0000000000000000       0xea NetLib/libwchnet.a(dhcp.o)
 .text.dhcp_stop
                0x0000000000000000       0x3e NetLib/libwchnet.a(dhcp.o)
 .text.dhcp_start
                0x0000000000000000       0xde NetLib/libwchnet.a(dhcp.o)
 .text          0x0000000000000000        0x0 NetLib/libwchnet.a(dns.o)
 .data          0x0000000000000000        0x0 NetLib/libwchnet.a(dns.o)
 .bss           0x0000000000000000        0x0 NetLib/libwchnet.a(dns.o)
 .text.dns_parse_name
                0x0000000000000000       0x20 NetLib/libwchnet.a(dns.o)
 .text.dns_recv
                0x0000000000000000      0x226 NetLib/libwchnet.a(dns.o)
 .text.dns_send
                0x0000000000000000      0x12e NetLib/libwchnet.a(dns.o)
 .text.dns_check_entry
                0x0000000000000000       0xd6 NetLib/libwchnet.a(dns.o)
 .text.dns_setserver
                0x0000000000000000       0x50 NetLib/libwchnet.a(dns.o)
 .text.dns_init
                0x0000000000000000       0x68 NetLib/libwchnet.a(dns.o)
 .text.dns_getserver
                0x0000000000000000       0x56 NetLib/libwchnet.a(dns.o)
 .text.dns_tmr  0x0000000000000000       0x44 NetLib/libwchnet.a(dns.o)
 .text.dns_lookup
                0x0000000000000000       0x58 NetLib/libwchnet.a(dns.o)
 .text.dns_gethostbyname
                0x0000000000000000       0xf0 NetLib/libwchnet.a(dns.o)
 .text.dns_stop
                0x0000000000000000       0x32 NetLib/libwchnet.a(dns.o)
 .bss.dns_table
                0x0000000000000000      0x260 NetLib/libwchnet.a(dns.o)
 .sbss.dns_pcb  0x0000000000000000        0x4 NetLib/libwchnet.a(dns.o)
 .sbss.dns_seqno
                0x0000000000000000        0x1 NetLib/libwchnet.a(dns.o)
 .sbss.dns_servers
                0x0000000000000000        0x8 NetLib/libwchnet.a(dns.o)
 .comment       0x0000000000000000       0x34 NetLib/libwchnet.a(dns.o)
 .text          0x0000000000000000        0x0 NetLib/libwchnet.a(init.o)
 .data          0x0000000000000000        0x0 NetLib/libwchnet.a(init.o)
 .bss           0x0000000000000000        0x0 NetLib/libwchnet.a(init.o)
 .text          0x0000000000000000        0x0 NetLib/libwchnet.a(mem.o)
 .data          0x0000000000000000        0x0 NetLib/libwchnet.a(mem.o)
 .bss           0x0000000000000000        0x0 NetLib/libwchnet.a(mem.o)
 .text.mem2_init
                0x0000000000000000       0x52 NetLib/libwchnet.a(mem.o)
 .text.mem_calloc
                0x0000000000000000       0x3a NetLib/libwchnet.a(mem.o)
 .text          0x0000000000000000        0x0 NetLib/libwchnet.a(memp.o)
 .data          0x0000000000000000        0x0 NetLib/libwchnet.a(memp.o)
 .bss           0x0000000000000000        0x0 NetLib/libwchnet.a(memp.o)
 .text          0x0000000000000000        0x0 NetLib/libwchnet.a(netif.o)
 .data          0x0000000000000000        0x0 NetLib/libwchnet.a(netif.o)
 .bss           0x0000000000000000        0x0 NetLib/libwchnet.a(netif.o)
 .text.netif_remove
                0x0000000000000000       0x3a NetLib/libwchnet.a(netif.o)
 .text.netif_find
                0x0000000000000000       0x40 NetLib/libwchnet.a(netif.o)
 .text.netif_set_gw
                0x0000000000000000       0x1c NetLib/libwchnet.a(netif.o)
 .text.netif_set_netmask
                0x0000000000000000       0x1c NetLib/libwchnet.a(netif.o)
 .text.netif_set_up
                0x0000000000000000       0x36 NetLib/libwchnet.a(netif.o)
 .text.netif_set_down
                0x0000000000000000       0x12 NetLib/libwchnet.a(netif.o)
 .text          0x0000000000000000        0x0 NetLib/libwchnet.a(pbuf.o)
 .data          0x0000000000000000        0x0 NetLib/libwchnet.a(pbuf.o)
 .bss           0x0000000000000000        0x0 NetLib/libwchnet.a(pbuf.o)
 .text.pbuf_dechain
                0x0000000000000000       0x32 NetLib/libwchnet.a(pbuf.o)
 .text.pbuf_copy_partial
                0x0000000000000000       0x76 NetLib/libwchnet.a(pbuf.o)
 .text.pbuf_take
                0x0000000000000000       0x60 NetLib/libwchnet.a(pbuf.o)
 .text.pbuf_coalesce
                0x0000000000000000       0x42 NetLib/libwchnet.a(pbuf.o)
 .text          0x0000000000000000        0x0 NetLib/libwchnet.a(raw.o)
 .data          0x0000000000000000        0x0 NetLib/libwchnet.a(raw.o)
 .bss           0x0000000000000000        0x0 NetLib/libwchnet.a(raw.o)
 .text          0x0000000000000000        0x0 NetLib/libwchnet.a(tcp.o)
 .data          0x0000000000000000        0x0 NetLib/libwchnet.a(tcp.o)
 .bss           0x0000000000000000        0x0 NetLib/libwchnet.a(tcp.o)
 .text.tcp_setprio
                0x0000000000000000        0x4 NetLib/libwchnet.a(tcp.o)
 .text.tcp_debug_state_str
                0x0000000000000000       0x10 NetLib/libwchnet.a(tcp.o)
 .data.tcp_state_str
                0x0000000000000000       0x2c NetLib/libwchnet.a(tcp.o)
 .rodata.str1.4
                0x0000000000000000       0x76 NetLib/libwchnet.a(tcp.o)
 .text          0x0000000000000000        0x0 NetLib/libwchnet.a(tcp_in.o)
 .data          0x0000000000000000        0x0 NetLib/libwchnet.a(tcp_in.o)
 .bss           0x0000000000000000        0x0 NetLib/libwchnet.a(tcp_in.o)
 .text          0x0000000000000000        0x0 NetLib/libwchnet.a(tcp_out.o)
 .data          0x0000000000000000        0x0 NetLib/libwchnet.a(tcp_out.o)
 .bss           0x0000000000000000        0x0 NetLib/libwchnet.a(tcp_out.o)
 .text          0x0000000000000000        0x0 NetLib/libwchnet.a(udp.o)
 .data          0x0000000000000000        0x0 NetLib/libwchnet.a(udp.o)
 .bss           0x0000000000000000        0x0 NetLib/libwchnet.a(udp.o)
 .text.udp_disconnect
                0x0000000000000000       0x2e NetLib/libwchnet.a(udp.o)
 .text          0x0000000000000000        0x0 NetLib/libwchnet.a(icmp.o)
 .data          0x0000000000000000        0x0 NetLib/libwchnet.a(icmp.o)
 .bss           0x0000000000000000        0x0 NetLib/libwchnet.a(icmp.o)
 .text          0x0000000000000000        0x0 NetLib/libwchnet.a(inet_chksum.o)
 .data          0x0000000000000000        0x0 NetLib/libwchnet.a(inet_chksum.o)
 .bss           0x0000000000000000        0x0 NetLib/libwchnet.a(inet_chksum.o)
 .data          0x0000000000000000        0x0 e:/program/mounriver/mounriver_studio/toolchain/risc-v embedded gcc/bin/../lib/gcc/riscv-none-embed/8.2.0/rv32ecxw/ilp32e\libgcc.a(save-restore.o)
 .bss           0x0000000000000000        0x0 e:/program/mounriver/mounriver_studio/toolchain/risc-v embedded gcc/bin/../lib/gcc/riscv-none-embed/8.2.0/rv32ecxw/ilp32e\libgcc.a(save-restore.o)
 .eh_frame      0x0000000000000000       0x68 e:/program/mounriver/mounriver_studio/toolchain/risc-v embedded gcc/bin/../lib/gcc/riscv-none-embed/8.2.0/rv32ecxw/ilp32e\libgcc.a(save-restore.o)
 .data          0x0000000000000000        0x0 e:/program/mounriver/mounriver_studio/toolchain/risc-v embedded gcc/bin/../lib/gcc/riscv-none-embed/8.2.0/rv32ecxw/ilp32e\libgcc.a(muldi3.o)
 .bss           0x0000000000000000        0x0 e:/program/mounriver/mounriver_studio/toolchain/risc-v embedded gcc/bin/../lib/gcc/riscv-none-embed/8.2.0/rv32ecxw/ilp32e\libgcc.a(muldi3.o)
 .data          0x0000000000000000        0x0 e:/program/mounriver/mounriver_studio/toolchain/risc-v embedded gcc/bin/../lib/gcc/riscv-none-embed/8.2.0/rv32ecxw/ilp32e\libgcc.a(div.o)
 .bss           0x0000000000000000        0x0 e:/program/mounriver/mounriver_studio/toolchain/risc-v embedded gcc/bin/../lib/gcc/riscv-none-embed/8.2.0/rv32ecxw/ilp32e\libgcc.a(div.o)
 .text          0x0000000000000000        0x0 e:/program/mounriver/mounriver_studio/toolchain/risc-v embedded gcc/bin/../lib/gcc/riscv-none-embed/8.2.0/../../../../riscv-none-embed/lib/rv32ecxw/ilp32e\libg_nano.a(lib_a-atexit.o)
 .data          0x0000000000000000        0x0 e:/program/mounriver/mounriver_studio/toolchain/risc-v embedded gcc/bin/../lib/gcc/riscv-none-embed/8.2.0/../../../../riscv-none-embed/lib/rv32ecxw/ilp32e\libg_nano.a(lib_a-atexit.o)
 .bss           0x0000000000000000        0x0 e:/program/mounriver/mounriver_studio/toolchain/risc-v embedded gcc/bin/../lib/gcc/riscv-none-embed/8.2.0/../../../../riscv-none-embed/lib/rv32ecxw/ilp32e\libg_nano.a(lib_a-atexit.o)
 .text          0x0000000000000000        0x0 e:/program/mounriver/mounriver_studio/toolchain/risc-v embedded gcc/bin/../lib/gcc/riscv-none-embed/8.2.0/../../../../riscv-none-embed/lib/rv32ecxw/ilp32e\libg_nano.a(lib_a-atoi.o)
 .data          0x0000000000000000        0x0 e:/program/mounriver/mounriver_studio/toolchain/risc-v embedded gcc/bin/../lib/gcc/riscv-none-embed/8.2.0/../../../../riscv-none-embed/lib/rv32ecxw/ilp32e\libg_nano.a(lib_a-atoi.o)
 .bss           0x0000000000000000        0x0 e:/program/mounriver/mounriver_studio/toolchain/risc-v embedded gcc/bin/../lib/gcc/riscv-none-embed/8.2.0/../../../../riscv-none-embed/lib/rv32ecxw/ilp32e\libg_nano.a(lib_a-atoi.o)
 .text._atoi_r  0x0000000000000000        0xc e:/program/mounriver/mounriver_studio/toolchain/risc-v embedded gcc/bin/../lib/gcc/riscv-none-embed/8.2.0/../../../../riscv-none-embed/lib/rv32ecxw/ilp32e\libg_nano.a(lib_a-atoi.o)
 .text          0x0000000000000000        0x0 e:/program/mounriver/mounriver_studio/toolchain/risc-v embedded gcc/bin/../lib/gcc/riscv-none-embed/8.2.0/../../../../riscv-none-embed/lib/rv32ecxw/ilp32e\libg_nano.a(lib_a-fini.o)
 .data          0x0000000000000000        0x0 e:/program/mounriver/mounriver_studio/toolchain/risc-v embedded gcc/bin/../lib/gcc/riscv-none-embed/8.2.0/../../../../riscv-none-embed/lib/rv32ecxw/ilp32e\libg_nano.a(lib_a-fini.o)
 .bss           0x0000000000000000        0x0 e:/program/mounriver/mounriver_studio/toolchain/risc-v embedded gcc/bin/../lib/gcc/riscv-none-embed/8.2.0/../../../../riscv-none-embed/lib/rv32ecxw/ilp32e\libg_nano.a(lib_a-fini.o)
 .text          0x0000000000000000        0x0 e:/program/mounriver/mounriver_studio/toolchain/risc-v embedded gcc/bin/../lib/gcc/riscv-none-embed/8.2.0/../../../../riscv-none-embed/lib/rv32ecxw/ilp32e\libg_nano.a(lib_a-init.o)
 .data          0x0000000000000000        0x0 e:/program/mounriver/mounriver_studio/toolchain/risc-v embedded gcc/bin/../lib/gcc/riscv-none-embed/8.2.0/../../../../riscv-none-embed/lib/rv32ecxw/ilp32e\libg_nano.a(lib_a-init.o)
 .bss           0x0000000000000000        0x0 e:/program/mounriver/mounriver_studio/toolchain/risc-v embedded gcc/bin/../lib/gcc/riscv-none-embed/8.2.0/../../../../riscv-none-embed/lib/rv32ecxw/ilp32e\libg_nano.a(lib_a-init.o)
 .text          0x0000000000000000        0x0 e:/program/mounriver/mounriver_studio/toolchain/risc-v embedded gcc/bin/../lib/gcc/riscv-none-embed/8.2.0/../../../../riscv-none-embed/lib/rv32ecxw/ilp32e\libg_nano.a(lib_a-memcpy.o)
 .data          0x0000000000000000        0x0 e:/program/mounriver/mounriver_studio/toolchain/risc-v embedded gcc/bin/../lib/gcc/riscv-none-embed/8.2.0/../../../../riscv-none-embed/lib/rv32ecxw/ilp32e\libg_nano.a(lib_a-memcpy.o)
 .bss           0x0000000000000000        0x0 e:/program/mounriver/mounriver_studio/toolchain/risc-v embedded gcc/bin/../lib/gcc/riscv-none-embed/8.2.0/../../../../riscv-none-embed/lib/rv32ecxw/ilp32e\libg_nano.a(lib_a-memcpy.o)
 .data          0x0000000000000000        0x0 e:/program/mounriver/mounriver_studio/toolchain/risc-v embedded gcc/bin/../lib/gcc/riscv-none-embed/8.2.0/../../../../riscv-none-embed/lib/rv32ecxw/ilp32e\libg_nano.a(lib_a-memset.o)
 .bss           0x0000000000000000        0x0 e:/program/mounriver/mounriver_studio/toolchain/risc-v embedded gcc/bin/../lib/gcc/riscv-none-embed/8.2.0/../../../../riscv-none-embed/lib/rv32ecxw/ilp32e\libg_nano.a(lib_a-memset.o)
 .text          0x0000000000000000        0x0 e:/program/mounriver/mounriver_studio/toolchain/risc-v embedded gcc/bin/../lib/gcc/riscv-none-embed/8.2.0/../../../../riscv-none-embed/lib/rv32ecxw/ilp32e\libg_nano.a(lib_a-printf.o)
 .data          0x0000000000000000        0x0 e:/program/mounriver/mounriver_studio/toolchain/risc-v embedded gcc/bin/../lib/gcc/riscv-none-embed/8.2.0/../../../../riscv-none-embed/lib/rv32ecxw/ilp32e\libg_nano.a(lib_a-printf.o)
 .bss           0x0000000000000000        0x0 e:/program/mounriver/mounriver_studio/toolchain/risc-v embedded gcc/bin/../lib/gcc/riscv-none-embed/8.2.0/../../../../riscv-none-embed/lib/rv32ecxw/ilp32e\libg_nano.a(lib_a-printf.o)
 .text._printf_r
                0x0000000000000000       0x40 e:/program/mounriver/mounriver_studio/toolchain/risc-v embedded gcc/bin/../lib/gcc/riscv-none-embed/8.2.0/../../../../riscv-none-embed/lib/rv32ecxw/ilp32e\libg_nano.a(lib_a-printf.o)
 .text          0x0000000000000000        0x0 e:/program/mounriver/mounriver_studio/toolchain/risc-v embedded gcc/bin/../lib/gcc/riscv-none-embed/8.2.0/../../../../riscv-none-embed/lib/rv32ecxw/ilp32e\libg_nano.a(lib_a-putchar.o)
 .data          0x0000000000000000        0x0 e:/program/mounriver/mounriver_studio/toolchain/risc-v embedded gcc/bin/../lib/gcc/riscv-none-embed/8.2.0/../../../../riscv-none-embed/lib/rv32ecxw/ilp32e\libg_nano.a(lib_a-putchar.o)
 .bss           0x0000000000000000        0x0 e:/program/mounriver/mounriver_studio/toolchain/risc-v embedded gcc/bin/../lib/gcc/riscv-none-embed/8.2.0/../../../../riscv-none-embed/lib/rv32ecxw/ilp32e\libg_nano.a(lib_a-putchar.o)
 .text._putchar_r
                0x0000000000000000       0x2c e:/program/mounriver/mounriver_studio/toolchain/risc-v embedded gcc/bin/../lib/gcc/riscv-none-embed/8.2.0/../../../../riscv-none-embed/lib/rv32ecxw/ilp32e\libg_nano.a(lib_a-putchar.o)
 .text          0x0000000000000000        0x0 e:/program/mounriver/mounriver_studio/toolchain/risc-v embedded gcc/bin/../lib/gcc/riscv-none-embed/8.2.0/../../../../riscv-none-embed/lib/rv32ecxw/ilp32e\libg_nano.a(lib_a-puts.o)
 .data          0x0000000000000000        0x0 e:/program/mounriver/mounriver_studio/toolchain/risc-v embedded gcc/bin/../lib/gcc/riscv-none-embed/8.2.0/../../../../riscv-none-embed/lib/rv32ecxw/ilp32e\libg_nano.a(lib_a-puts.o)
 .bss           0x0000000000000000        0x0 e:/program/mounriver/mounriver_studio/toolchain/risc-v embedded gcc/bin/../lib/gcc/riscv-none-embed/8.2.0/../../../../riscv-none-embed/lib/rv32ecxw/ilp32e\libg_nano.a(lib_a-puts.o)
 .text          0x0000000000000000        0x0 e:/program/mounriver/mounriver_studio/toolchain/risc-v embedded gcc/bin/../lib/gcc/riscv-none-embed/8.2.0/../../../../riscv-none-embed/lib/rv32ecxw/ilp32e\libg_nano.a(lib_a-sprintf.o)
 .data          0x0000000000000000        0x0 e:/program/mounriver/mounriver_studio/toolchain/risc-v embedded gcc/bin/../lib/gcc/riscv-none-embed/8.2.0/../../../../riscv-none-embed/lib/rv32ecxw/ilp32e\libg_nano.a(lib_a-sprintf.o)
 .bss           0x0000000000000000        0x0 e:/program/mounriver/mounriver_studio/toolchain/risc-v embedded gcc/bin/../lib/gcc/riscv-none-embed/8.2.0/../../../../riscv-none-embed/lib/rv32ecxw/ilp32e\libg_nano.a(lib_a-sprintf.o)
 .text._sprintf_r
                0x0000000000000000       0x40 e:/program/mounriver/mounriver_studio/toolchain/risc-v embedded gcc/bin/../lib/gcc/riscv-none-embed/8.2.0/../../../../riscv-none-embed/lib/rv32ecxw/ilp32e\libg_nano.a(lib_a-sprintf.o)
 .data          0x0000000000000000        0x0 e:/program/mounriver/mounriver_studio/toolchain/risc-v embedded gcc/bin/../lib/gcc/riscv-none-embed/8.2.0/../../../../riscv-none-embed/lib/rv32ecxw/ilp32e\libg_nano.a(lib_a-strcmp.o)
 .bss           0x0000000000000000        0x0 e:/program/mounriver/mounriver_studio/toolchain/risc-v embedded gcc/bin/../lib/gcc/riscv-none-embed/8.2.0/../../../../riscv-none-embed/lib/rv32ecxw/ilp32e\libg_nano.a(lib_a-strcmp.o)
 .text          0x0000000000000000        0x0 e:/program/mounriver/mounriver_studio/toolchain/risc-v embedded gcc/bin/../lib/gcc/riscv-none-embed/8.2.0/../../../../riscv-none-embed/lib/rv32ecxw/ilp32e\libg_nano.a(lib_a-strcpy.o)
 .data          0x0000000000000000        0x0 e:/program/mounriver/mounriver_studio/toolchain/risc-v embedded gcc/bin/../lib/gcc/riscv-none-embed/8.2.0/../../../../riscv-none-embed/lib/rv32ecxw/ilp32e\libg_nano.a(lib_a-strcpy.o)
 .bss           0x0000000000000000        0x0 e:/program/mounriver/mounriver_studio/toolchain/risc-v embedded gcc/bin/../lib/gcc/riscv-none-embed/8.2.0/../../../../riscv-none-embed/lib/rv32ecxw/ilp32e\libg_nano.a(lib_a-strcpy.o)
 .text          0x0000000000000000        0x0 e:/program/mounriver/mounriver_studio/toolchain/risc-v embedded gcc/bin/../lib/gcc/riscv-none-embed/8.2.0/../../../../riscv-none-embed/lib/rv32ecxw/ilp32e\libg_nano.a(lib_a-strlen.o)
 .data          0x0000000000000000        0x0 e:/program/mounriver/mounriver_studio/toolchain/risc-v embedded gcc/bin/../lib/gcc/riscv-none-embed/8.2.0/../../../../riscv-none-embed/lib/rv32ecxw/ilp32e\libg_nano.a(lib_a-strlen.o)
 .bss           0x0000000000000000        0x0 e:/program/mounriver/mounriver_studio/toolchain/risc-v embedded gcc/bin/../lib/gcc/riscv-none-embed/8.2.0/../../../../riscv-none-embed/lib/rv32ecxw/ilp32e\libg_nano.a(lib_a-strlen.o)
 .text          0x0000000000000000        0x0 e:/program/mounriver/mounriver_studio/toolchain/risc-v embedded gcc/bin/../lib/gcc/riscv-none-embed/8.2.0/../../../../riscv-none-embed/lib/rv32ecxw/ilp32e\libg_nano.a(lib_a-strstr.o)
 .data          0x0000000000000000        0x0 e:/program/mounriver/mounriver_studio/toolchain/risc-v embedded gcc/bin/../lib/gcc/riscv-none-embed/8.2.0/../../../../riscv-none-embed/lib/rv32ecxw/ilp32e\libg_nano.a(lib_a-strstr.o)
 .bss           0x0000000000000000        0x0 e:/program/mounriver/mounriver_studio/toolchain/risc-v embedded gcc/bin/../lib/gcc/riscv-none-embed/8.2.0/../../../../riscv-none-embed/lib/rv32ecxw/ilp32e\libg_nano.a(lib_a-strstr.o)
 .text          0x0000000000000000        0x0 e:/program/mounriver/mounriver_studio/toolchain/risc-v embedded gcc/bin/../lib/gcc/riscv-none-embed/8.2.0/../../../../riscv-none-embed/lib/rv32ecxw/ilp32e\libg_nano.a(lib_a-strtok.o)
 .data          0x0000000000000000        0x0 e:/program/mounriver/mounriver_studio/toolchain/risc-v embedded gcc/bin/../lib/gcc/riscv-none-embed/8.2.0/../../../../riscv-none-embed/lib/rv32ecxw/ilp32e\libg_nano.a(lib_a-strtok.o)
 .bss           0x0000000000000000        0x0 e:/program/mounriver/mounriver_studio/toolchain/risc-v embedded gcc/bin/../lib/gcc/riscv-none-embed/8.2.0/../../../../riscv-none-embed/lib/rv32ecxw/ilp32e\libg_nano.a(lib_a-strtok.o)
 .text          0x0000000000000000        0x0 e:/program/mounriver/mounriver_studio/toolchain/risc-v embedded gcc/bin/../lib/gcc/riscv-none-embed/8.2.0/../../../../riscv-none-embed/lib/rv32ecxw/ilp32e\libg_nano.a(lib_a-strtok_r.o)
 .data          0x0000000000000000        0x0 e:/program/mounriver/mounriver_studio/toolchain/risc-v embedded gcc/bin/../lib/gcc/riscv-none-embed/8.2.0/../../../../riscv-none-embed/lib/rv32ecxw/ilp32e\libg_nano.a(lib_a-strtok_r.o)
 .bss           0x0000000000000000        0x0 e:/program/mounriver/mounriver_studio/toolchain/risc-v embedded gcc/bin/../lib/gcc/riscv-none-embed/8.2.0/../../../../riscv-none-embed/lib/rv32ecxw/ilp32e\libg_nano.a(lib_a-strtok_r.o)
 .text.strtok_r
                0x0000000000000000        0xa e:/program/mounriver/mounriver_studio/toolchain/risc-v embedded gcc/bin/../lib/gcc/riscv-none-embed/8.2.0/../../../../riscv-none-embed/lib/rv32ecxw/ilp32e\libg_nano.a(lib_a-strtok_r.o)
 .text          0x0000000000000000        0x0 e:/program/mounriver/mounriver_studio/toolchain/risc-v embedded gcc/bin/../lib/gcc/riscv-none-embed/8.2.0/../../../../riscv-none-embed/lib/rv32ecxw/ilp32e\libg_nano.a(lib_a-strtol.o)
 .data          0x0000000000000000        0x0 e:/program/mounriver/mounriver_studio/toolchain/risc-v embedded gcc/bin/../lib/gcc/riscv-none-embed/8.2.0/../../../../riscv-none-embed/lib/rv32ecxw/ilp32e\libg_nano.a(lib_a-strtol.o)
 .bss           0x0000000000000000        0x0 e:/program/mounriver/mounriver_studio/toolchain/risc-v embedded gcc/bin/../lib/gcc/riscv-none-embed/8.2.0/../../../../riscv-none-embed/lib/rv32ecxw/ilp32e\libg_nano.a(lib_a-strtol.o)
 .text._strtol_r
                0x0000000000000000       0x1e e:/program/mounriver/mounriver_studio/toolchain/risc-v embedded gcc/bin/../lib/gcc/riscv-none-embed/8.2.0/../../../../riscv-none-embed/lib/rv32ecxw/ilp32e\libg_nano.a(lib_a-strtol.o)
 .text.strtol_l
                0x0000000000000000       0x1a e:/program/mounriver/mounriver_studio/toolchain/risc-v embedded gcc/bin/../lib/gcc/riscv-none-embed/8.2.0/../../../../riscv-none-embed/lib/rv32ecxw/ilp32e\libg_nano.a(lib_a-strtol.o)
 .text          0x0000000000000000        0x0 e:/program/mounriver/mounriver_studio/toolchain/risc-v embedded gcc/bin/../lib/gcc/riscv-none-embed/8.2.0/../../../../riscv-none-embed/lib/rv32ecxw/ilp32e\libg_nano.a(lib_a-wbuf.o)
 .data          0x0000000000000000        0x0 e:/program/mounriver/mounriver_studio/toolchain/risc-v embedded gcc/bin/../lib/gcc/riscv-none-embed/8.2.0/../../../../riscv-none-embed/lib/rv32ecxw/ilp32e\libg_nano.a(lib_a-wbuf.o)
 .bss           0x0000000000000000        0x0 e:/program/mounriver/mounriver_studio/toolchain/risc-v embedded gcc/bin/../lib/gcc/riscv-none-embed/8.2.0/../../../../riscv-none-embed/lib/rv32ecxw/ilp32e\libg_nano.a(lib_a-wbuf.o)
 .text.__swbuf  0x0000000000000000       0x16 e:/program/mounriver/mounriver_studio/toolchain/risc-v embedded gcc/bin/../lib/gcc/riscv-none-embed/8.2.0/../../../../riscv-none-embed/lib/rv32ecxw/ilp32e\libg_nano.a(lib_a-wbuf.o)
 .text          0x0000000000000000        0x0 e:/program/mounriver/mounriver_studio/toolchain/risc-v embedded gcc/bin/../lib/gcc/riscv-none-embed/8.2.0/../../../../riscv-none-embed/lib/rv32ecxw/ilp32e\libg_nano.a(lib_a-wsetup.o)
 .data          0x0000000000000000        0x0 e:/program/mounriver/mounriver_studio/toolchain/risc-v embedded gcc/bin/../lib/gcc/riscv-none-embed/8.2.0/../../../../riscv-none-embed/lib/rv32ecxw/ilp32e\libg_nano.a(lib_a-wsetup.o)
 .bss           0x0000000000000000        0x0 e:/program/mounriver/mounriver_studio/toolchain/risc-v embedded gcc/bin/../lib/gcc/riscv-none-embed/8.2.0/../../../../riscv-none-embed/lib/rv32ecxw/ilp32e\libg_nano.a(lib_a-wsetup.o)
 .text          0x0000000000000000        0x0 e:/program/mounriver/mounriver_studio/toolchain/risc-v embedded gcc/bin/../lib/gcc/riscv-none-embed/8.2.0/../../../../riscv-none-embed/lib/rv32ecxw/ilp32e\libg_nano.a(lib_a-__atexit.o)
 .data          0x0000000000000000        0x0 e:/program/mounriver/mounriver_studio/toolchain/risc-v embedded gcc/bin/../lib/gcc/riscv-none-embed/8.2.0/../../../../riscv-none-embed/lib/rv32ecxw/ilp32e\libg_nano.a(lib_a-__atexit.o)
 .bss           0x0000000000000000        0x0 e:/program/mounriver/mounriver_studio/toolchain/risc-v embedded gcc/bin/../lib/gcc/riscv-none-embed/8.2.0/../../../../riscv-none-embed/lib/rv32ecxw/ilp32e\libg_nano.a(lib_a-__atexit.o)
 .sdata.__atexit_dummy
                0x0000000000000000        0x4 e:/program/mounriver/mounriver_studio/toolchain/risc-v embedded gcc/bin/../lib/gcc/riscv-none-embed/8.2.0/../../../../riscv-none-embed/lib/rv32ecxw/ilp32e\libg_nano.a(lib_a-__atexit.o)
 .text          0x0000000000000000        0x0 e:/program/mounriver/mounriver_studio/toolchain/risc-v embedded gcc/bin/../lib/gcc/riscv-none-embed/8.2.0/../../../../riscv-none-embed/lib/rv32ecxw/ilp32e\libg_nano.a(lib_a-__call_atexit.o)
 .data          0x0000000000000000        0x0 e:/program/mounriver/mounriver_studio/toolchain/risc-v embedded gcc/bin/../lib/gcc/riscv-none-embed/8.2.0/../../../../riscv-none-embed/lib/rv32ecxw/ilp32e\libg_nano.a(lib_a-__call_atexit.o)
 .bss           0x0000000000000000        0x0 e:/program/mounriver/mounriver_studio/toolchain/risc-v embedded gcc/bin/../lib/gcc/riscv-none-embed/8.2.0/../../../../riscv-none-embed/lib/rv32ecxw/ilp32e\libg_nano.a(lib_a-__call_atexit.o)
 .text.__call_exitprocs
                0x0000000000000000       0xc2 e:/program/mounriver/mounriver_studio/toolchain/risc-v embedded gcc/bin/../lib/gcc/riscv-none-embed/8.2.0/../../../../riscv-none-embed/lib/rv32ecxw/ilp32e\libg_nano.a(lib_a-__call_atexit.o)
 .text          0x0000000000000000        0x0 e:/program/mounriver/mounriver_studio/toolchain/risc-v embedded gcc/bin/../lib/gcc/riscv-none-embed/8.2.0/../../../../riscv-none-embed/lib/rv32ecxw/ilp32e\libg_nano.a(lib_a-fflush.o)
 .data          0x0000000000000000        0x0 e:/program/mounriver/mounriver_studio/toolchain/risc-v embedded gcc/bin/../lib/gcc/riscv-none-embed/8.2.0/../../../../riscv-none-embed/lib/rv32ecxw/ilp32e\libg_nano.a(lib_a-fflush.o)
 .bss           0x0000000000000000        0x0 e:/program/mounriver/mounriver_studio/toolchain/risc-v embedded gcc/bin/../lib/gcc/riscv-none-embed/8.2.0/../../../../riscv-none-embed/lib/rv32ecxw/ilp32e\libg_nano.a(lib_a-fflush.o)
 .text.fflush   0x0000000000000000       0x30 e:/program/mounriver/mounriver_studio/toolchain/risc-v embedded gcc/bin/../lib/gcc/riscv-none-embed/8.2.0/../../../../riscv-none-embed/lib/rv32ecxw/ilp32e\libg_nano.a(lib_a-fflush.o)
 .text          0x0000000000000000        0x0 e:/program/mounriver/mounriver_studio/toolchain/risc-v embedded gcc/bin/../lib/gcc/riscv-none-embed/8.2.0/../../../../riscv-none-embed/lib/rv32ecxw/ilp32e\libg_nano.a(lib_a-findfp.o)
 .data          0x0000000000000000        0x0 e:/program/mounriver/mounriver_studio/toolchain/risc-v embedded gcc/bin/../lib/gcc/riscv-none-embed/8.2.0/../../../../riscv-none-embed/lib/rv32ecxw/ilp32e\libg_nano.a(lib_a-findfp.o)
 .bss           0x0000000000000000        0x0 e:/program/mounriver/mounriver_studio/toolchain/risc-v embedded gcc/bin/../lib/gcc/riscv-none-embed/8.2.0/../../../../riscv-none-embed/lib/rv32ecxw/ilp32e\libg_nano.a(lib_a-findfp.o)
 .text.__fp_lock
                0x0000000000000000        0x4 e:/program/mounriver/mounriver_studio/toolchain/risc-v embedded gcc/bin/../lib/gcc/riscv-none-embed/8.2.0/../../../../riscv-none-embed/lib/rv32ecxw/ilp32e\libg_nano.a(lib_a-findfp.o)
 .text.__fp_unlock
                0x0000000000000000        0x4 e:/program/mounriver/mounriver_studio/toolchain/risc-v embedded gcc/bin/../lib/gcc/riscv-none-embed/8.2.0/../../../../riscv-none-embed/lib/rv32ecxw/ilp32e\libg_nano.a(lib_a-findfp.o)
 .text._cleanup
                0x0000000000000000       0x12 e:/program/mounriver/mounriver_studio/toolchain/risc-v embedded gcc/bin/../lib/gcc/riscv-none-embed/8.2.0/../../../../riscv-none-embed/lib/rv32ecxw/ilp32e\libg_nano.a(lib_a-findfp.o)
 .text.__sfp_lock_acquire
                0x0000000000000000        0x2 e:/program/mounriver/mounriver_studio/toolchain/risc-v embedded gcc/bin/../lib/gcc/riscv-none-embed/8.2.0/../../../../riscv-none-embed/lib/rv32ecxw/ilp32e\libg_nano.a(lib_a-findfp.o)
 .text.__sfp_lock_release
                0x0000000000000000        0x2 e:/program/mounriver/mounriver_studio/toolchain/risc-v embedded gcc/bin/../lib/gcc/riscv-none-embed/8.2.0/../../../../riscv-none-embed/lib/rv32ecxw/ilp32e\libg_nano.a(lib_a-findfp.o)
 .text.__sinit_lock_acquire
                0x0000000000000000        0x2 e:/program/mounriver/mounriver_studio/toolchain/risc-v embedded gcc/bin/../lib/gcc/riscv-none-embed/8.2.0/../../../../riscv-none-embed/lib/rv32ecxw/ilp32e\libg_nano.a(lib_a-findfp.o)
 .text.__sinit_lock_release
                0x0000000000000000        0x2 e:/program/mounriver/mounriver_studio/toolchain/risc-v embedded gcc/bin/../lib/gcc/riscv-none-embed/8.2.0/../../../../riscv-none-embed/lib/rv32ecxw/ilp32e\libg_nano.a(lib_a-findfp.o)
 .text.__fp_lock_all
                0x0000000000000000       0x1a e:/program/mounriver/mounriver_studio/toolchain/risc-v embedded gcc/bin/../lib/gcc/riscv-none-embed/8.2.0/../../../../riscv-none-embed/lib/rv32ecxw/ilp32e\libg_nano.a(lib_a-findfp.o)
 .text.__fp_unlock_all
                0x0000000000000000       0x1a e:/program/mounriver/mounriver_studio/toolchain/risc-v embedded gcc/bin/../lib/gcc/riscv-none-embed/8.2.0/../../../../riscv-none-embed/lib/rv32ecxw/ilp32e\libg_nano.a(lib_a-findfp.o)
 .text          0x0000000000000000        0x0 e:/program/mounriver/mounriver_studio/toolchain/risc-v embedded gcc/bin/../lib/gcc/riscv-none-embed/8.2.0/../../../../riscv-none-embed/lib/rv32ecxw/ilp32e\libg_nano.a(lib_a-fwalk.o)
 .data          0x0000000000000000        0x0 e:/program/mounriver/mounriver_studio/toolchain/risc-v embedded gcc/bin/../lib/gcc/riscv-none-embed/8.2.0/../../../../riscv-none-embed/lib/rv32ecxw/ilp32e\libg_nano.a(lib_a-fwalk.o)
 .bss           0x0000000000000000        0x0 e:/program/mounriver/mounriver_studio/toolchain/risc-v embedded gcc/bin/../lib/gcc/riscv-none-embed/8.2.0/../../../../riscv-none-embed/lib/rv32ecxw/ilp32e\libg_nano.a(lib_a-fwalk.o)
 .text._fwalk   0x0000000000000000       0x54 e:/program/mounriver/mounriver_studio/toolchain/risc-v embedded gcc/bin/../lib/gcc/riscv-none-embed/8.2.0/../../../../riscv-none-embed/lib/rv32ecxw/ilp32e\libg_nano.a(lib_a-fwalk.o)
 .text          0x0000000000000000        0x0 e:/program/mounriver/mounriver_studio/toolchain/risc-v embedded gcc/bin/../lib/gcc/riscv-none-embed/8.2.0/../../../../riscv-none-embed/lib/rv32ecxw/ilp32e\libg_nano.a(lib_a-impure.o)
 .data          0x0000000000000000        0x0 e:/program/mounriver/mounriver_studio/toolchain/risc-v embedded gcc/bin/../lib/gcc/riscv-none-embed/8.2.0/../../../../riscv-none-embed/lib/rv32ecxw/ilp32e\libg_nano.a(lib_a-impure.o)
 .bss           0x0000000000000000        0x0 e:/program/mounriver/mounriver_studio/toolchain/risc-v embedded gcc/bin/../lib/gcc/riscv-none-embed/8.2.0/../../../../riscv-none-embed/lib/rv32ecxw/ilp32e\libg_nano.a(lib_a-impure.o)
 .text          0x0000000000000000        0x0 e:/program/mounriver/mounriver_studio/toolchain/risc-v embedded gcc/bin/../lib/gcc/riscv-none-embed/8.2.0/../../../../riscv-none-embed/lib/rv32ecxw/ilp32e\libg_nano.a(lib_a-locale.o)
 .data          0x0000000000000000        0x0 e:/program/mounriver/mounriver_studio/toolchain/risc-v embedded gcc/bin/../lib/gcc/riscv-none-embed/8.2.0/../../../../riscv-none-embed/lib/rv32ecxw/ilp32e\libg_nano.a(lib_a-locale.o)
 .bss           0x0000000000000000        0x0 e:/program/mounriver/mounriver_studio/toolchain/risc-v embedded gcc/bin/../lib/gcc/riscv-none-embed/8.2.0/../../../../riscv-none-embed/lib/rv32ecxw/ilp32e\libg_nano.a(lib_a-locale.o)
 .text._setlocale_r
                0x0000000000000000       0x64 e:/program/mounriver/mounriver_studio/toolchain/risc-v embedded gcc/bin/../lib/gcc/riscv-none-embed/8.2.0/../../../../riscv-none-embed/lib/rv32ecxw/ilp32e\libg_nano.a(lib_a-locale.o)
 .text.__locale_mb_cur_max
                0x0000000000000000       0x1c e:/program/mounriver/mounriver_studio/toolchain/risc-v embedded gcc/bin/../lib/gcc/riscv-none-embed/8.2.0/../../../../riscv-none-embed/lib/rv32ecxw/ilp32e\libg_nano.a(lib_a-locale.o)
 .text.__locale_ctype_ptr
                0x0000000000000000       0x1c e:/program/mounriver/mounriver_studio/toolchain/risc-v embedded gcc/bin/../lib/gcc/riscv-none-embed/8.2.0/../../../../riscv-none-embed/lib/rv32ecxw/ilp32e\libg_nano.a(lib_a-locale.o)
 .text.setlocale
                0x0000000000000000       0x16 e:/program/mounriver/mounriver_studio/toolchain/risc-v embedded gcc/bin/../lib/gcc/riscv-none-embed/8.2.0/../../../../riscv-none-embed/lib/rv32ecxw/ilp32e\libg_nano.a(lib_a-locale.o)
 .sbss._PathLocale
                0x0000000000000000        0x4 e:/program/mounriver/mounriver_studio/toolchain/risc-v embedded gcc/bin/../lib/gcc/riscv-none-embed/8.2.0/../../../../riscv-none-embed/lib/rv32ecxw/ilp32e\libg_nano.a(lib_a-locale.o)
 .text          0x0000000000000000        0x0 e:/program/mounriver/mounriver_studio/toolchain/risc-v embedded gcc/bin/../lib/gcc/riscv-none-embed/8.2.0/../../../../riscv-none-embed/lib/rv32ecxw/ilp32e\libg_nano.a(lib_a-makebuf.o)
 .data          0x0000000000000000        0x0 e:/program/mounriver/mounriver_studio/toolchain/risc-v embedded gcc/bin/../lib/gcc/riscv-none-embed/8.2.0/../../../../riscv-none-embed/lib/rv32ecxw/ilp32e\libg_nano.a(lib_a-makebuf.o)
 .bss           0x0000000000000000        0x0 e:/program/mounriver/mounriver_studio/toolchain/risc-v embedded gcc/bin/../lib/gcc/riscv-none-embed/8.2.0/../../../../riscv-none-embed/lib/rv32ecxw/ilp32e\libg_nano.a(lib_a-makebuf.o)
 .text          0x0000000000000000        0x0 e:/program/mounriver/mounriver_studio/toolchain/risc-v embedded gcc/bin/../lib/gcc/riscv-none-embed/8.2.0/../../../../riscv-none-embed/lib/rv32ecxw/ilp32e\libg_nano.a(lib_a-malloc.o)
 .data          0x0000000000000000        0x0 e:/program/mounriver/mounriver_studio/toolchain/risc-v embedded gcc/bin/../lib/gcc/riscv-none-embed/8.2.0/../../../../riscv-none-embed/lib/rv32ecxw/ilp32e\libg_nano.a(lib_a-malloc.o)
 .bss           0x0000000000000000        0x0 e:/program/mounriver/mounriver_studio/toolchain/risc-v embedded gcc/bin/../lib/gcc/riscv-none-embed/8.2.0/../../../../riscv-none-embed/lib/rv32ecxw/ilp32e\libg_nano.a(lib_a-malloc.o)
 .text.free     0x0000000000000000       0x14 e:/program/mounriver/mounriver_studio/toolchain/risc-v embedded gcc/bin/../lib/gcc/riscv-none-embed/8.2.0/../../../../riscv-none-embed/lib/rv32ecxw/ilp32e\libg_nano.a(lib_a-malloc.o)
 .text          0x0000000000000000        0x0 e:/program/mounriver/mounriver_studio/toolchain/risc-v embedded gcc/bin/../lib/gcc/riscv-none-embed/8.2.0/../../../../riscv-none-embed/lib/rv32ecxw/ilp32e\libg_nano.a(lib_a-mbtowc_r.o)
 .data          0x0000000000000000        0x0 e:/program/mounriver/mounriver_studio/toolchain/risc-v embedded gcc/bin/../lib/gcc/riscv-none-embed/8.2.0/../../../../riscv-none-embed/lib/rv32ecxw/ilp32e\libg_nano.a(lib_a-mbtowc_r.o)
 .bss           0x0000000000000000        0x0 e:/program/mounriver/mounriver_studio/toolchain/risc-v embedded gcc/bin/../lib/gcc/riscv-none-embed/8.2.0/../../../../riscv-none-embed/lib/rv32ecxw/ilp32e\libg_nano.a(lib_a-mbtowc_r.o)
 .text._mbtowc_r
                0x0000000000000000       0x1c e:/program/mounriver/mounriver_studio/toolchain/risc-v embedded gcc/bin/../lib/gcc/riscv-none-embed/8.2.0/../../../../riscv-none-embed/lib/rv32ecxw/ilp32e\libg_nano.a(lib_a-mbtowc_r.o)
 .text          0x0000000000000000        0x0 e:/program/mounriver/mounriver_studio/toolchain/risc-v embedded gcc/bin/../lib/gcc/riscv-none-embed/8.2.0/../../../../riscv-none-embed/lib/rv32ecxw/ilp32e\libg_nano.a(lib_a-nano-freer.o)
 .data          0x0000000000000000        0x0 e:/program/mounriver/mounriver_studio/toolchain/risc-v embedded gcc/bin/../lib/gcc/riscv-none-embed/8.2.0/../../../../riscv-none-embed/lib/rv32ecxw/ilp32e\libg_nano.a(lib_a-nano-freer.o)
 .bss           0x0000000000000000        0x0 e:/program/mounriver/mounriver_studio/toolchain/risc-v embedded gcc/bin/../lib/gcc/riscv-none-embed/8.2.0/../../../../riscv-none-embed/lib/rv32ecxw/ilp32e\libg_nano.a(lib_a-nano-freer.o)
 .text          0x0000000000000000        0x0 e:/program/mounriver/mounriver_studio/toolchain/risc-v embedded gcc/bin/../lib/gcc/riscv-none-embed/8.2.0/../../../../riscv-none-embed/lib/rv32ecxw/ilp32e\libg_nano.a(lib_a-nano-mallocr.o)
 .data          0x0000000000000000        0x0 e:/program/mounriver/mounriver_studio/toolchain/risc-v embedded gcc/bin/../lib/gcc/riscv-none-embed/8.2.0/../../../../riscv-none-embed/lib/rv32ecxw/ilp32e\libg_nano.a(lib_a-nano-mallocr.o)
 .bss           0x0000000000000000        0x0 e:/program/mounriver/mounriver_studio/toolchain/risc-v embedded gcc/bin/../lib/gcc/riscv-none-embed/8.2.0/../../../../riscv-none-embed/lib/rv32ecxw/ilp32e\libg_nano.a(lib_a-nano-mallocr.o)
 .text          0x0000000000000000        0x0 e:/program/mounriver/mounriver_studio/toolchain/risc-v embedded gcc/bin/../lib/gcc/riscv-none-embed/8.2.0/../../../../riscv-none-embed/lib/rv32ecxw/ilp32e\libg_nano.a(lib_a-nano-svfprintf.o)
 .data          0x0000000000000000        0x0 e:/program/mounriver/mounriver_studio/toolchain/risc-v embedded gcc/bin/../lib/gcc/riscv-none-embed/8.2.0/../../../../riscv-none-embed/lib/rv32ecxw/ilp32e\libg_nano.a(lib_a-nano-svfprintf.o)
 .bss           0x0000000000000000        0x0 e:/program/mounriver/mounriver_studio/toolchain/risc-v embedded gcc/bin/../lib/gcc/riscv-none-embed/8.2.0/../../../../riscv-none-embed/lib/rv32ecxw/ilp32e\libg_nano.a(lib_a-nano-svfprintf.o)
 .text.__ssprint_r
                0x0000000000000000      0x13e e:/program/mounriver/mounriver_studio/toolchain/risc-v embedded gcc/bin/../lib/gcc/riscv-none-embed/8.2.0/../../../../riscv-none-embed/lib/rv32ecxw/ilp32e\libg_nano.a(lib_a-nano-svfprintf.o)
 .text          0x0000000000000000        0x0 e:/program/mounriver/mounriver_studio/toolchain/risc-v embedded gcc/bin/../lib/gcc/riscv-none-embed/8.2.0/../../../../riscv-none-embed/lib/rv32ecxw/ilp32e\libg_nano.a(lib_a-nano-vfprintf.o)
 .data          0x0000000000000000        0x0 e:/program/mounriver/mounriver_studio/toolchain/risc-v embedded gcc/bin/../lib/gcc/riscv-none-embed/8.2.0/../../../../riscv-none-embed/lib/rv32ecxw/ilp32e\libg_nano.a(lib_a-nano-vfprintf.o)
 .bss           0x0000000000000000        0x0 e:/program/mounriver/mounriver_studio/toolchain/risc-v embedded gcc/bin/../lib/gcc/riscv-none-embed/8.2.0/../../../../riscv-none-embed/lib/rv32ecxw/ilp32e\libg_nano.a(lib_a-nano-vfprintf.o)
 .text.__sprint_r
                0x0000000000000000       0x2c e:/program/mounriver/mounriver_studio/toolchain/risc-v embedded gcc/bin/../lib/gcc/riscv-none-embed/8.2.0/../../../../riscv-none-embed/lib/rv32ecxw/ilp32e\libg_nano.a(lib_a-nano-vfprintf.o)
 .text.vfprintf
                0x0000000000000000       0x18 e:/program/mounriver/mounriver_studio/toolchain/risc-v embedded gcc/bin/../lib/gcc/riscv-none-embed/8.2.0/../../../../riscv-none-embed/lib/rv32ecxw/ilp32e\libg_nano.a(lib_a-nano-vfprintf.o)
 .text          0x0000000000000000        0x0 e:/program/mounriver/mounriver_studio/toolchain/risc-v embedded gcc/bin/../lib/gcc/riscv-none-embed/8.2.0/../../../../riscv-none-embed/lib/rv32ecxw/ilp32e\libg_nano.a(lib_a-nano-vfprintf_i.o)
 .data          0x0000000000000000        0x0 e:/program/mounriver/mounriver_studio/toolchain/risc-v embedded gcc/bin/../lib/gcc/riscv-none-embed/8.2.0/../../../../riscv-none-embed/lib/rv32ecxw/ilp32e\libg_nano.a(lib_a-nano-vfprintf_i.o)
 .bss           0x0000000000000000        0x0 e:/program/mounriver/mounriver_studio/toolchain/risc-v embedded gcc/bin/../lib/gcc/riscv-none-embed/8.2.0/../../../../riscv-none-embed/lib/rv32ecxw/ilp32e\libg_nano.a(lib_a-nano-vfprintf_i.o)
 .text          0x0000000000000000        0x0 e:/program/mounriver/mounriver_studio/toolchain/risc-v embedded gcc/bin/../lib/gcc/riscv-none-embed/8.2.0/../../../../riscv-none-embed/lib/rv32ecxw/ilp32e\libg_nano.a(lib_a-putc.o)
 .data          0x0000000000000000        0x0 e:/program/mounriver/mounriver_studio/toolchain/risc-v embedded gcc/bin/../lib/gcc/riscv-none-embed/8.2.0/../../../../riscv-none-embed/lib/rv32ecxw/ilp32e\libg_nano.a(lib_a-putc.o)
 .bss           0x0000000000000000        0x0 e:/program/mounriver/mounriver_studio/toolchain/risc-v embedded gcc/bin/../lib/gcc/riscv-none-embed/8.2.0/../../../../riscv-none-embed/lib/rv32ecxw/ilp32e\libg_nano.a(lib_a-putc.o)
 .text.putc     0x0000000000000000       0x16 e:/program/mounriver/mounriver_studio/toolchain/risc-v embedded gcc/bin/../lib/gcc/riscv-none-embed/8.2.0/../../../../riscv-none-embed/lib/rv32ecxw/ilp32e\libg_nano.a(lib_a-putc.o)
 .text          0x0000000000000000        0x0 e:/program/mounriver/mounriver_studio/toolchain/risc-v embedded gcc/bin/../lib/gcc/riscv-none-embed/8.2.0/../../../../riscv-none-embed/lib/rv32ecxw/ilp32e\libg_nano.a(lib_a-sbrkr.o)
 .data          0x0000000000000000        0x0 e:/program/mounriver/mounriver_studio/toolchain/risc-v embedded gcc/bin/../lib/gcc/riscv-none-embed/8.2.0/../../../../riscv-none-embed/lib/rv32ecxw/ilp32e\libg_nano.a(lib_a-sbrkr.o)
 .bss           0x0000000000000000        0x0 e:/program/mounriver/mounriver_studio/toolchain/risc-v embedded gcc/bin/../lib/gcc/riscv-none-embed/8.2.0/../../../../riscv-none-embed/lib/rv32ecxw/ilp32e\libg_nano.a(lib_a-sbrkr.o)
 .text          0x0000000000000000        0x0 e:/program/mounriver/mounriver_studio/toolchain/risc-v embedded gcc/bin/../lib/gcc/riscv-none-embed/8.2.0/../../../../riscv-none-embed/lib/rv32ecxw/ilp32e\libg_nano.a(lib_a-stdio.o)
 .data          0x0000000000000000        0x0 e:/program/mounriver/mounriver_studio/toolchain/risc-v embedded gcc/bin/../lib/gcc/riscv-none-embed/8.2.0/../../../../riscv-none-embed/lib/rv32ecxw/ilp32e\libg_nano.a(lib_a-stdio.o)
 .bss           0x0000000000000000        0x0 e:/program/mounriver/mounriver_studio/toolchain/risc-v embedded gcc/bin/../lib/gcc/riscv-none-embed/8.2.0/../../../../riscv-none-embed/lib/rv32ecxw/ilp32e\libg_nano.a(lib_a-stdio.o)
 .text.__seofread
                0x0000000000000000        0x4 e:/program/mounriver/mounriver_studio/toolchain/risc-v embedded gcc/bin/../lib/gcc/riscv-none-embed/8.2.0/../../../../riscv-none-embed/lib/rv32ecxw/ilp32e\libg_nano.a(lib_a-stdio.o)
 .text          0x0000000000000000        0x0 e:/program/mounriver/mounriver_studio/toolchain/risc-v embedded gcc/bin/../lib/gcc/riscv-none-embed/8.2.0/../../../../riscv-none-embed/lib/rv32ecxw/ilp32e\libg_nano.a(lib_a-wctomb_r.o)
 .data          0x0000000000000000        0x0 e:/program/mounriver/mounriver_studio/toolchain/risc-v embedded gcc/bin/../lib/gcc/riscv-none-embed/8.2.0/../../../../riscv-none-embed/lib/rv32ecxw/ilp32e\libg_nano.a(lib_a-wctomb_r.o)
 .bss           0x0000000000000000        0x0 e:/program/mounriver/mounriver_studio/toolchain/risc-v embedded gcc/bin/../lib/gcc/riscv-none-embed/8.2.0/../../../../riscv-none-embed/lib/rv32ecxw/ilp32e\libg_nano.a(lib_a-wctomb_r.o)
 .text._wctomb_r
                0x0000000000000000       0x1c e:/program/mounriver/mounriver_studio/toolchain/risc-v embedded gcc/bin/../lib/gcc/riscv-none-embed/8.2.0/../../../../riscv-none-embed/lib/rv32ecxw/ilp32e\libg_nano.a(lib_a-wctomb_r.o)
 .text          0x0000000000000000        0x0 e:/program/mounriver/mounriver_studio/toolchain/risc-v embedded gcc/bin/../lib/gcc/riscv-none-embed/8.2.0/../../../../riscv-none-embed/lib/rv32ecxw/ilp32e\libg_nano.a(lib_a-writer.o)
 .data          0x0000000000000000        0x0 e:/program/mounriver/mounriver_studio/toolchain/risc-v embedded gcc/bin/../lib/gcc/riscv-none-embed/8.2.0/../../../../riscv-none-embed/lib/rv32ecxw/ilp32e\libg_nano.a(lib_a-writer.o)
 .bss           0x0000000000000000        0x0 e:/program/mounriver/mounriver_studio/toolchain/risc-v embedded gcc/bin/../lib/gcc/riscv-none-embed/8.2.0/../../../../riscv-none-embed/lib/rv32ecxw/ilp32e\libg_nano.a(lib_a-writer.o)
 .text          0x0000000000000000        0x0 e:/program/mounriver/mounriver_studio/toolchain/risc-v embedded gcc/bin/../lib/gcc/riscv-none-embed/8.2.0/../../../../riscv-none-embed/lib/rv32ecxw/ilp32e\libg_nano.a(lib_a-closer.o)
 .data          0x0000000000000000        0x0 e:/program/mounriver/mounriver_studio/toolchain/risc-v embedded gcc/bin/../lib/gcc/riscv-none-embed/8.2.0/../../../../riscv-none-embed/lib/rv32ecxw/ilp32e\libg_nano.a(lib_a-closer.o)
 .bss           0x0000000000000000        0x0 e:/program/mounriver/mounriver_studio/toolchain/risc-v embedded gcc/bin/../lib/gcc/riscv-none-embed/8.2.0/../../../../riscv-none-embed/lib/rv32ecxw/ilp32e\libg_nano.a(lib_a-closer.o)
 .text          0x0000000000000000        0x0 e:/program/mounriver/mounriver_studio/toolchain/risc-v embedded gcc/bin/../lib/gcc/riscv-none-embed/8.2.0/../../../../riscv-none-embed/lib/rv32ecxw/ilp32e\libg_nano.a(lib_a-ctype_.o)
 .data          0x0000000000000000        0x0 e:/program/mounriver/mounriver_studio/toolchain/risc-v embedded gcc/bin/../lib/gcc/riscv-none-embed/8.2.0/../../../../riscv-none-embed/lib/rv32ecxw/ilp32e\libg_nano.a(lib_a-ctype_.o)
 .bss           0x0000000000000000        0x0 e:/program/mounriver/mounriver_studio/toolchain/risc-v embedded gcc/bin/../lib/gcc/riscv-none-embed/8.2.0/../../../../riscv-none-embed/lib/rv32ecxw/ilp32e\libg_nano.a(lib_a-ctype_.o)
 .text          0x0000000000000000        0x0 e:/program/mounriver/mounriver_studio/toolchain/risc-v embedded gcc/bin/../lib/gcc/riscv-none-embed/8.2.0/../../../../riscv-none-embed/lib/rv32ecxw/ilp32e\libg_nano.a(lib_a-fstatr.o)
 .data          0x0000000000000000        0x0 e:/program/mounriver/mounriver_studio/toolchain/risc-v embedded gcc/bin/../lib/gcc/riscv-none-embed/8.2.0/../../../../riscv-none-embed/lib/rv32ecxw/ilp32e\libg_nano.a(lib_a-fstatr.o)
 .bss           0x0000000000000000        0x0 e:/program/mounriver/mounriver_studio/toolchain/risc-v embedded gcc/bin/../lib/gcc/riscv-none-embed/8.2.0/../../../../riscv-none-embed/lib/rv32ecxw/ilp32e\libg_nano.a(lib_a-fstatr.o)
 .text          0x0000000000000000        0x0 e:/program/mounriver/mounriver_studio/toolchain/risc-v embedded gcc/bin/../lib/gcc/riscv-none-embed/8.2.0/../../../../riscv-none-embed/lib/rv32ecxw/ilp32e\libg_nano.a(lib_a-fvwrite.o)
 .data          0x0000000000000000        0x0 e:/program/mounriver/mounriver_studio/toolchain/risc-v embedded gcc/bin/../lib/gcc/riscv-none-embed/8.2.0/../../../../riscv-none-embed/lib/rv32ecxw/ilp32e\libg_nano.a(lib_a-fvwrite.o)
 .bss           0x0000000000000000        0x0 e:/program/mounriver/mounriver_studio/toolchain/risc-v embedded gcc/bin/../lib/gcc/riscv-none-embed/8.2.0/../../../../riscv-none-embed/lib/rv32ecxw/ilp32e\libg_nano.a(lib_a-fvwrite.o)
 .text.__sfvwrite_r
                0x0000000000000000      0x338 e:/program/mounriver/mounriver_studio/toolchain/risc-v embedded gcc/bin/../lib/gcc/riscv-none-embed/8.2.0/../../../../riscv-none-embed/lib/rv32ecxw/ilp32e\libg_nano.a(lib_a-fvwrite.o)
 .debug_frame   0x0000000000000000       0x38 e:/program/mounriver/mounriver_studio/toolchain/risc-v embedded gcc/bin/../lib/gcc/riscv-none-embed/8.2.0/../../../../riscv-none-embed/lib/rv32ecxw/ilp32e\libg_nano.a(lib_a-fvwrite.o)
 .text          0x0000000000000000        0x0 e:/program/mounriver/mounriver_studio/toolchain/risc-v embedded gcc/bin/../lib/gcc/riscv-none-embed/8.2.0/../../../../riscv-none-embed/lib/rv32ecxw/ilp32e\libg_nano.a(lib_a-isattyr.o)
 .data          0x0000000000000000        0x0 e:/program/mounriver/mounriver_studio/toolchain/risc-v embedded gcc/bin/../lib/gcc/riscv-none-embed/8.2.0/../../../../riscv-none-embed/lib/rv32ecxw/ilp32e\libg_nano.a(lib_a-isattyr.o)
 .bss           0x0000000000000000        0x0 e:/program/mounriver/mounriver_studio/toolchain/risc-v embedded gcc/bin/../lib/gcc/riscv-none-embed/8.2.0/../../../../riscv-none-embed/lib/rv32ecxw/ilp32e\libg_nano.a(lib_a-isattyr.o)
 .text          0x0000000000000000        0x0 e:/program/mounriver/mounriver_studio/toolchain/risc-v embedded gcc/bin/../lib/gcc/riscv-none-embed/8.2.0/../../../../riscv-none-embed/lib/rv32ecxw/ilp32e\libg_nano.a(lib_a-lseekr.o)
 .data          0x0000000000000000        0x0 e:/program/mounriver/mounriver_studio/toolchain/risc-v embedded gcc/bin/../lib/gcc/riscv-none-embed/8.2.0/../../../../riscv-none-embed/lib/rv32ecxw/ilp32e\libg_nano.a(lib_a-lseekr.o)
 .bss           0x0000000000000000        0x0 e:/program/mounriver/mounriver_studio/toolchain/risc-v embedded gcc/bin/../lib/gcc/riscv-none-embed/8.2.0/../../../../riscv-none-embed/lib/rv32ecxw/ilp32e\libg_nano.a(lib_a-lseekr.o)
 .text          0x0000000000000000        0x0 e:/program/mounriver/mounriver_studio/toolchain/risc-v embedded gcc/bin/../lib/gcc/riscv-none-embed/8.2.0/../../../../riscv-none-embed/lib/rv32ecxw/ilp32e\libg_nano.a(lib_a-memchr.o)
 .data          0x0000000000000000        0x0 e:/program/mounriver/mounriver_studio/toolchain/risc-v embedded gcc/bin/../lib/gcc/riscv-none-embed/8.2.0/../../../../riscv-none-embed/lib/rv32ecxw/ilp32e\libg_nano.a(lib_a-memchr.o)
 .bss           0x0000000000000000        0x0 e:/program/mounriver/mounriver_studio/toolchain/risc-v embedded gcc/bin/../lib/gcc/riscv-none-embed/8.2.0/../../../../riscv-none-embed/lib/rv32ecxw/ilp32e\libg_nano.a(lib_a-memchr.o)
 .text          0x0000000000000000        0x0 e:/program/mounriver/mounriver_studio/toolchain/risc-v embedded gcc/bin/../lib/gcc/riscv-none-embed/8.2.0/../../../../riscv-none-embed/lib/rv32ecxw/ilp32e\libg_nano.a(lib_a-memmove.o)
 .data          0x0000000000000000        0x0 e:/program/mounriver/mounriver_studio/toolchain/risc-v embedded gcc/bin/../lib/gcc/riscv-none-embed/8.2.0/../../../../riscv-none-embed/lib/rv32ecxw/ilp32e\libg_nano.a(lib_a-memmove.o)
 .bss           0x0000000000000000        0x0 e:/program/mounriver/mounriver_studio/toolchain/risc-v embedded gcc/bin/../lib/gcc/riscv-none-embed/8.2.0/../../../../riscv-none-embed/lib/rv32ecxw/ilp32e\libg_nano.a(lib_a-memmove.o)
 .text          0x0000000000000000        0x0 e:/program/mounriver/mounriver_studio/toolchain/risc-v embedded gcc/bin/../lib/gcc/riscv-none-embed/8.2.0/../../../../riscv-none-embed/lib/rv32ecxw/ilp32e\libg_nano.a(lib_a-mlock.o)
 .data          0x0000000000000000        0x0 e:/program/mounriver/mounriver_studio/toolchain/risc-v embedded gcc/bin/../lib/gcc/riscv-none-embed/8.2.0/../../../../riscv-none-embed/lib/rv32ecxw/ilp32e\libg_nano.a(lib_a-mlock.o)
 .bss           0x0000000000000000        0x0 e:/program/mounriver/mounriver_studio/toolchain/risc-v embedded gcc/bin/../lib/gcc/riscv-none-embed/8.2.0/../../../../riscv-none-embed/lib/rv32ecxw/ilp32e\libg_nano.a(lib_a-mlock.o)
 .text          0x0000000000000000        0x0 e:/program/mounriver/mounriver_studio/toolchain/risc-v embedded gcc/bin/../lib/gcc/riscv-none-embed/8.2.0/../../../../riscv-none-embed/lib/rv32ecxw/ilp32e\libg_nano.a(lib_a-nano-reallocr.o)
 .data          0x0000000000000000        0x0 e:/program/mounriver/mounriver_studio/toolchain/risc-v embedded gcc/bin/../lib/gcc/riscv-none-embed/8.2.0/../../../../riscv-none-embed/lib/rv32ecxw/ilp32e\libg_nano.a(lib_a-nano-reallocr.o)
 .bss           0x0000000000000000        0x0 e:/program/mounriver/mounriver_studio/toolchain/risc-v embedded gcc/bin/../lib/gcc/riscv-none-embed/8.2.0/../../../../riscv-none-embed/lib/rv32ecxw/ilp32e\libg_nano.a(lib_a-nano-reallocr.o)
 .text          0x0000000000000000        0x0 e:/program/mounriver/mounriver_studio/toolchain/risc-v embedded gcc/bin/../lib/gcc/riscv-none-embed/8.2.0/../../../../riscv-none-embed/lib/rv32ecxw/ilp32e\libg_nano.a(lib_a-readr.o)
 .data          0x0000000000000000        0x0 e:/program/mounriver/mounriver_studio/toolchain/risc-v embedded gcc/bin/../lib/gcc/riscv-none-embed/8.2.0/../../../../riscv-none-embed/lib/rv32ecxw/ilp32e\libg_nano.a(lib_a-readr.o)
 .bss           0x0000000000000000        0x0 e:/program/mounriver/mounriver_studio/toolchain/risc-v embedded gcc/bin/../lib/gcc/riscv-none-embed/8.2.0/../../../../riscv-none-embed/lib/rv32ecxw/ilp32e\libg_nano.a(lib_a-readr.o)
 .text          0x0000000000000000        0x0 e:/program/mounriver/mounriver_studio/toolchain/risc-v embedded gcc/bin/../lib/gcc/riscv-none-embed/8.2.0/../../../../riscv-none-embed/lib/rv32ecxw/ilp32e\libg_nano.a(lib_a-reent.o)
 .data          0x0000000000000000        0x0 e:/program/mounriver/mounriver_studio/toolchain/risc-v embedded gcc/bin/../lib/gcc/riscv-none-embed/8.2.0/../../../../riscv-none-embed/lib/rv32ecxw/ilp32e\libg_nano.a(lib_a-reent.o)
 .bss           0x0000000000000000        0x0 e:/program/mounriver/mounriver_studio/toolchain/risc-v embedded gcc/bin/../lib/gcc/riscv-none-embed/8.2.0/../../../../riscv-none-embed/lib/rv32ecxw/ilp32e\libg_nano.a(lib_a-reent.o)
 .text.cleanup_glue
                0x0000000000000000       0x2c e:/program/mounriver/mounriver_studio/toolchain/risc-v embedded gcc/bin/../lib/gcc/riscv-none-embed/8.2.0/../../../../riscv-none-embed/lib/rv32ecxw/ilp32e\libg_nano.a(lib_a-reent.o)
 .text._reclaim_reent
                0x0000000000000000      0x102 e:/program/mounriver/mounriver_studio/toolchain/risc-v embedded gcc/bin/../lib/gcc/riscv-none-embed/8.2.0/../../../../riscv-none-embed/lib/rv32ecxw/ilp32e\libg_nano.a(lib_a-reent.o)
 .text          0x0000000000000000        0x0 e:/program/mounriver/mounriver_studio/toolchain/risc-v embedded gcc/bin/../lib/gcc/riscv-none-embed/8.2.0/../../../../riscv-none-embed/lib/rv32ecxw/ilp32e\libg_nano.a(lib_a-nano-msizer.o)
 .data          0x0000000000000000        0x0 e:/program/mounriver/mounriver_studio/toolchain/risc-v embedded gcc/bin/../lib/gcc/riscv-none-embed/8.2.0/../../../../riscv-none-embed/lib/rv32ecxw/ilp32e\libg_nano.a(lib_a-nano-msizer.o)
 .bss           0x0000000000000000        0x0 e:/program/mounriver/mounriver_studio/toolchain/risc-v embedded gcc/bin/../lib/gcc/riscv-none-embed/8.2.0/../../../../riscv-none-embed/lib/rv32ecxw/ilp32e\libg_nano.a(lib_a-nano-msizer.o)
 .text          0x0000000000000000        0x0 e:/program/mounriver/mounriver_studio/toolchain/risc-v embedded gcc/bin/../lib/gcc/riscv-none-embed/8.2.0/../../../../riscv-none-embed/lib/rv32ecxw/ilp32e\libnosys.a(close.o)
 .data          0x0000000000000000        0x0 e:/program/mounriver/mounriver_studio/toolchain/risc-v embedded gcc/bin/../lib/gcc/riscv-none-embed/8.2.0/../../../../riscv-none-embed/lib/rv32ecxw/ilp32e\libnosys.a(close.o)
 .bss           0x0000000000000000        0x0 e:/program/mounriver/mounriver_studio/toolchain/risc-v embedded gcc/bin/../lib/gcc/riscv-none-embed/8.2.0/../../../../riscv-none-embed/lib/rv32ecxw/ilp32e\libnosys.a(close.o)
 .text          0x0000000000000000        0x0 e:/program/mounriver/mounriver_studio/toolchain/risc-v embedded gcc/bin/../lib/gcc/riscv-none-embed/8.2.0/../../../../riscv-none-embed/lib/rv32ecxw/ilp32e\libnosys.a(fstat.o)
 .data          0x0000000000000000        0x0 e:/program/mounriver/mounriver_studio/toolchain/risc-v embedded gcc/bin/../lib/gcc/riscv-none-embed/8.2.0/../../../../riscv-none-embed/lib/rv32ecxw/ilp32e\libnosys.a(fstat.o)
 .bss           0x0000000000000000        0x0 e:/program/mounriver/mounriver_studio/toolchain/risc-v embedded gcc/bin/../lib/gcc/riscv-none-embed/8.2.0/../../../../riscv-none-embed/lib/rv32ecxw/ilp32e\libnosys.a(fstat.o)
 .text          0x0000000000000000        0x0 e:/program/mounriver/mounriver_studio/toolchain/risc-v embedded gcc/bin/../lib/gcc/riscv-none-embed/8.2.0/../../../../riscv-none-embed/lib/rv32ecxw/ilp32e\libnosys.a(isatty.o)
 .data          0x0000000000000000        0x0 e:/program/mounriver/mounriver_studio/toolchain/risc-v embedded gcc/bin/../lib/gcc/riscv-none-embed/8.2.0/../../../../riscv-none-embed/lib/rv32ecxw/ilp32e\libnosys.a(isatty.o)
 .bss           0x0000000000000000        0x0 e:/program/mounriver/mounriver_studio/toolchain/risc-v embedded gcc/bin/../lib/gcc/riscv-none-embed/8.2.0/../../../../riscv-none-embed/lib/rv32ecxw/ilp32e\libnosys.a(isatty.o)
 .text          0x0000000000000000        0x0 e:/program/mounriver/mounriver_studio/toolchain/risc-v embedded gcc/bin/../lib/gcc/riscv-none-embed/8.2.0/../../../../riscv-none-embed/lib/rv32ecxw/ilp32e\libnosys.a(lseek.o)
 .data          0x0000000000000000        0x0 e:/program/mounriver/mounriver_studio/toolchain/risc-v embedded gcc/bin/../lib/gcc/riscv-none-embed/8.2.0/../../../../riscv-none-embed/lib/rv32ecxw/ilp32e\libnosys.a(lseek.o)
 .bss           0x0000000000000000        0x0 e:/program/mounriver/mounriver_studio/toolchain/risc-v embedded gcc/bin/../lib/gcc/riscv-none-embed/8.2.0/../../../../riscv-none-embed/lib/rv32ecxw/ilp32e\libnosys.a(lseek.o)
 .text          0x0000000000000000        0x0 e:/program/mounriver/mounriver_studio/toolchain/risc-v embedded gcc/bin/../lib/gcc/riscv-none-embed/8.2.0/../../../../riscv-none-embed/lib/rv32ecxw/ilp32e\libnosys.a(read.o)
 .data          0x0000000000000000        0x0 e:/program/mounriver/mounriver_studio/toolchain/risc-v embedded gcc/bin/../lib/gcc/riscv-none-embed/8.2.0/../../../../riscv-none-embed/lib/rv32ecxw/ilp32e\libnosys.a(read.o)
 .bss           0x0000000000000000        0x0 e:/program/mounriver/mounriver_studio/toolchain/risc-v embedded gcc/bin/../lib/gcc/riscv-none-embed/8.2.0/../../../../riscv-none-embed/lib/rv32ecxw/ilp32e\libnosys.a(read.o)

Memory Configuration

Name             Origin             Length             Attributes
FLASH            0x0000000000000000 0x0000000000040000 xr
RAM              0x0000000020000000 0x0000000000010000 xrw
*default*        0x0000000000000000 0xffffffffffffffff

Linker script and memory map

LOAD build/main.o
LOAD build/eth_driver.o
LOAD build/HTTPS.o
LOAD build/ch32v30x_it.o
LOAD build/system_ch32v30x.o
LOAD build/debug.o
LOAD build/ch32v30x_adc.o
LOAD build/ch32v30x_bkp.o
LOAD build/ch32v30x_can.o
LOAD build/ch32v30x_crc.o
LOAD build/ch32v30x_dac.o
LOAD build/ch32v30x_dbgmcu.o
LOAD build/ch32v30x_dma.o
LOAD build/ch32v30x_dvp.o
LOAD build/ch32v30x_eth.o
LOAD build/ch32v30x_exti.o
LOAD build/ch32v30x_flash.o
LOAD build/ch32v30x_fsmc.o
LOAD build/ch32v30x_gpio.o
LOAD build/ch32v30x_i2c.o
LOAD build/ch32v30x_iwdg.o
LOAD build/ch32v30x_misc.o
LOAD build/ch32v30x_opa.o
LOAD build/ch32v30x_pwr.o
LOAD build/ch32v30x_rcc.o
LOAD build/ch32v30x_rng.o
LOAD build/ch32v30x_rtc.o
LOAD build/ch32v30x_sdio.o
LOAD build/ch32v30x_spi.o
LOAD build/ch32v30x_tim.o
LOAD build/ch32v30x_usart.o
LOAD build/ch32v30x_wwdg.o
LOAD build/startup_ch32v30x_D8C.o
LOAD NetLib/libwchnet.a
LOAD NetLib/libwchnet_float.a
LOAD e:/program/mounriver/mounriver_studio/toolchain/risc-v embedded gcc/bin/../lib/gcc/riscv-none-embed/8.2.0/rv32ecxw/ilp32e\libgcc.a
LOAD e:/program/mounriver/mounriver_studio/toolchain/risc-v embedded gcc/bin/../lib/gcc/riscv-none-embed/8.2.0/../../../../riscv-none-embed/lib/rv32ecxw/ilp32e\libg_nano.a
LOAD e:/program/mounriver/mounriver_studio/toolchain/risc-v embedded gcc/bin/../lib/gcc/riscv-none-embed/8.2.0/../../../../riscv-none-embed/lib/rv32ecxw/ilp32e\libc_nano.a
LOAD e:/program/mounriver/mounriver_studio/toolchain/risc-v embedded gcc/bin/../lib/gcc/riscv-none-embed/8.2.0/rv32ecxw/ilp32e\libgcc.a
START GROUP
LOAD e:/program/mounriver/mounriver_studio/toolchain/risc-v embedded gcc/bin/../lib/gcc/riscv-none-embed/8.2.0/rv32ecxw/ilp32e\libgcc.a
LOAD e:/program/mounriver/mounriver_studio/toolchain/risc-v embedded gcc/bin/../lib/gcc/riscv-none-embed/8.2.0/../../../../riscv-none-embed/lib/rv32ecxw/ilp32e\libc_nano.a
LOAD e:/program/mounriver/mounriver_studio/toolchain/risc-v embedded gcc/bin/../lib/gcc/riscv-none-embed/8.2.0/../../../../riscv-none-embed/lib/rv32ecxw/ilp32e\libnosys.a
END GROUP
START GROUP
LOAD e:/program/mounriver/mounriver_studio/toolchain/risc-v embedded gcc/bin/../lib/gcc/riscv-none-embed/8.2.0/rv32ecxw/ilp32e\libgcc.a
LOAD e:/program/mounriver/mounriver_studio/toolchain/risc-v embedded gcc/bin/../lib/gcc/riscv-none-embed/8.2.0/../../../../riscv-none-embed/lib/rv32ecxw/ilp32e\libc_nano.a
LOAD e:/program/mounriver/mounriver_studio/toolchain/risc-v embedded gcc/bin/../lib/gcc/riscv-none-embed/8.2.0/../../../../riscv-none-embed/lib/rv32ecxw/ilp32e\libnosys.a
END GROUP
                0x0000000000000800                __stack_size = 0x800
                [!provide]                        PROVIDE (_stack_size = __stack_size)

.init           0x0000000000000000       0x38
                0x0000000000000000                _sinit = .
                0x0000000000000000                . = ALIGN (0x4)
 *(SORT_NONE(.init))
 .init          0x0000000000000000       0x38 build/startup_ch32v30x_D8C.o
                0x0000000000000000                _start
                0x0000000000000038                . = ALIGN (0x4)
                0x0000000000000038                _einit = .

.vector         0x0000000000000038      0x1c8
 *(.vector)
 .vector        0x0000000000000038      0x1a0 build/startup_ch32v30x_D8C.o
                0x0000000000000200                . = ALIGN (0x40)
 *fill*         0x00000000000001d8       0x28 

.text           0x0000000000000200    0x13768
                0x0000000000000200                . = ALIGN (0x4)
 *(.text)
 .text          0x0000000000000200       0x14 e:/program/mounriver/mounriver_studio/toolchain/risc-v embedded gcc/bin/../lib/gcc/riscv-none-embed/8.2.0/rv32ecxw/ilp32e\libgcc.a(save-restore.o)
                0x0000000000000200                __riscv_save_1
                0x0000000000000200                __riscv_save_2
                0x0000000000000200                __riscv_save_0
                0x000000000000020a                __riscv_restore_0
                0x000000000000020a                __riscv_restore_1
                0x000000000000020a                __riscv_restore_2
 .text          0x0000000000000214       0x16 e:/program/mounriver/mounriver_studio/toolchain/risc-v embedded gcc/bin/../lib/gcc/riscv-none-embed/8.2.0/rv32ecxw/ilp32e\libgcc.a(muldi3.o)
                0x0000000000000214                __mulsi3
 *fill*         0x000000000000022a        0x2 
 .text          0x000000000000022c       0x7e e:/program/mounriver/mounriver_studio/toolchain/risc-v embedded gcc/bin/../lib/gcc/riscv-none-embed/8.2.0/rv32ecxw/ilp32e\libgcc.a(div.o)
                0x000000000000022c                __divsi3
                0x0000000000000234                __udivsi3
                0x0000000000000260                __umodsi3
                0x0000000000000284                __modsi3
 .text          0x00000000000002aa       0xa8 e:/program/mounriver/mounriver_studio/toolchain/risc-v embedded gcc/bin/../lib/gcc/riscv-none-embed/8.2.0/../../../../riscv-none-embed/lib/rv32ecxw/ilp32e\libg_nano.a(lib_a-memset.o)
                0x00000000000002aa                memset
 .text          0x0000000000000352      0x11a e:/program/mounriver/mounriver_studio/toolchain/risc-v embedded gcc/bin/../lib/gcc/riscv-none-embed/8.2.0/../../../../riscv-none-embed/lib/rv32ecxw/ilp32e\libg_nano.a(lib_a-strcmp.o)
                0x0000000000000352                strcmp
 *(.text.*)
 .text.mStopIfError
                0x000000000000046c       0x18 build/main.o
                0x000000000000046c                mStopIfError
 .text.TIM2_Init
                0x0000000000000484       0x70 build/main.o
                0x0000000000000484                TIM2_Init
 .text.WCHNET_CreateTcpSocketListen
                0x00000000000004f4       0x4c build/main.o
                0x00000000000004f4                WCHNET_CreateTcpSocketListen
 .text.WCHNET_CreateCfgSocket
                0x0000000000000540       0xb2 build/main.o
                0x0000000000000540                WCHNET_CreateCfgSocket
 .text.WCHNET_RestoreDefaults
                0x00000000000005f2       0x60 build/main.o
                0x00000000000005f2                WCHNET_RestoreDefaults
 .text.WCHNET_HandleSockInt
                0x0000000000000652       0xb8 build/main.o
                0x0000000000000652                WCHNET_HandleSockInt
 .text.WCHNET_HandleGlobalInt
                0x000000000000070a       0x6e build/main.o
                0x000000000000070a                WCHNET_HandleGlobalInt
 .text.GPIOInit
                0x0000000000000778       0x32 build/main.o
                0x0000000000000778                GPIOInit
 .text.startup.main
                0x00000000000007aa      0x258 build/main.o
                0x00000000000007aa                main
 .text.ETH_TxPktChainMode
                0x0000000000000a02       0x52 build/eth_driver.o
                0x0000000000000a02                ETH_TxPktChainMode
 .text.ETH_LedDataSet
                0x0000000000000a54       0x22 build/eth_driver.o
                0x0000000000000a54                ETH_LedDataSet
 .text.ETH_LedLinkSet
                0x0000000000000a76       0x22 build/eth_driver.o
                0x0000000000000a76                ETH_LedLinkSet
 .text.WCHNET_GetMacAddr
                0x0000000000000a98       0x20 build/eth_driver.o
                0x0000000000000a98                WCHNET_GetMacAddr
 .text.WCHNET_TimeIsr
                0x0000000000000ab8       0x10 build/eth_driver.o
                0x0000000000000ab8                WCHNET_TimeIsr
 .text.WCHNET_LinkProcess
                0x0000000000000ac8      0x1e4 build/eth_driver.o
                0x0000000000000ac8                WCHNET_LinkProcess
 .text.WCHNET_HandlePhyNegotiation
                0x0000000000000cac       0x38 build/eth_driver.o
                0x0000000000000cac                WCHNET_HandlePhyNegotiation
 .text.WCHNET_MainTask
                0x0000000000000ce4       0x12 build/eth_driver.o
                0x0000000000000ce4                WCHNET_MainTask
 .text.ETH_LedConfiguration
                0x0000000000000cf6       0x44 build/eth_driver.o
                0x0000000000000cf6                ETH_LedConfiguration
 .text.ETH_SetClock
                0x0000000000000d3a       0x2a build/eth_driver.o
                0x0000000000000d3a                ETH_SetClock
 .text.ETH_PHYLink
                0x0000000000000d64      0x144 build/eth_driver.o
                0x0000000000000d64                ETH_PHYLink
 .text.ETH_RegInit
                0x0000000000000ea8      0x11e build/eth_driver.o
                0x0000000000000ea8                ETH_RegInit
 .text.ETH_Configuration
                0x0000000000000fc6       0xce build/eth_driver.o
                0x0000000000000fc6                ETH_Configuration
 .text.WCHNET_ETHIsr
                0x0000000000001094       0x8a build/eth_driver.o
                0x0000000000001094                WCHNET_ETHIsr
 .text.ETH_Init
                0x000000000000111e       0x66 build/eth_driver.o
                0x000000000000111e                ETH_Init
 .text.ETH_LibInit
                0x0000000000001184       0x88 build/eth_driver.o
                0x0000000000001184                ETH_LibInit
 .text.ParseHttpRequest
                0x000000000000120c       0x88 build/HTTPS.o
                0x000000000000120c                ParseHttpRequest
 .text.GetURLName
                0x0000000000001294       0x42 build/HTTPS.o
                0x0000000000001294                GetURLName
 .text.ParseURLType
                0x00000000000012d6       0x70 build/HTTPS.o
                0x00000000000012d6                ParseURLType
 .text.MakeHttpResponse
                0x0000000000001346       0x4e build/HTTPS.o
                0x0000000000001346                MakeHttpResponse
 .text.DataLocate
                0x0000000000001394       0x1c build/HTTPS.o
                0x0000000000001394                DataLocate
 .text.Para_DataLocate
                0x00000000000013b0       0x1a build/HTTPS.o
                0x00000000000013b0                Para_DataLocate
 .text.Refresh_Html
                0x00000000000013ca       0xe0 build/HTTPS.o
                0x00000000000013ca                Refresh_Html
 .text.copy_flash
                0x00000000000014aa       0x2e build/HTTPS.o
                0x00000000000014aa                copy_flash
 .text.WEB_ERASE
                0x00000000000014d8       0x2a build/HTTPS.o
                0x00000000000014d8                WEB_ERASE
 .text.WEB_WRITE
                0x0000000000001502       0x48 build/HTTPS.o
                0x0000000000001502                WEB_WRITE
 .text.Refresh_Basic
                0x000000000000154a      0x21e build/HTTPS.o
                0x000000000000154a                Refresh_Basic
 .text.Refresh_Port
                0x0000000000001768      0x240 build/HTTPS.o
                0x0000000000001768                Refresh_Port
 .text.Refresh_Login
                0x00000000000019a8       0xae build/HTTPS.o
                0x00000000000019a8                Refresh_Login
 .text.WEB_READ
                0x0000000000001a56       0x18 build/HTTPS.o
                0x0000000000001a56                WEB_READ
 .text.Init_Para_Tab
                0x0000000000001a6e      0x264 build/HTTPS.o
                0x0000000000001a6e                Init_Para_Tab
 .text.Web_Server
                0x0000000000001cd2      0x3a8 build/HTTPS.o
                0x0000000000001cd2                Web_Server
 .text.NMI_Handler
                0x000000000000207a        0x4 build/ch32v30x_it.o
                0x000000000000207a                NMI_Handler
 .text.HardFault_Handler
                0x000000000000207e       0x50 build/ch32v30x_it.o
                0x000000000000207e                HardFault_Handler
 .text.EXTI9_5_IRQHandler
                0x00000000000020ce       0x3a build/ch32v30x_it.o
                0x00000000000020ce                EXTI9_5_IRQHandler
 .text.ETH_IRQHandler
                0x0000000000002108        0x8 build/ch32v30x_it.o
                0x0000000000002108                ETH_IRQHandler
 .text.TIM2_IRQHandler
                0x0000000000002110       0x14 build/ch32v30x_it.o
                0x0000000000002110                TIM2_IRQHandler
 .text.SystemInit
                0x0000000000002124       0xfa build/system_ch32v30x.o
                0x0000000000002124                SystemInit
 .text.SystemCoreClockUpdate
                0x000000000000221e       0xc4 build/system_ch32v30x.o
                0x000000000000221e                SystemCoreClockUpdate
 .text.Delay_Init
                0x00000000000022e2       0x3c build/debug.o
                0x00000000000022e2                Delay_Init
 .text.Delay_Us
                0x000000000000231e       0x46 build/debug.o
                0x000000000000231e                Delay_Us
 .text.Delay_Ms
                0x0000000000002364       0x46 build/debug.o
                0x0000000000002364                Delay_Ms
 .text.USART_Printf_Init
                0x00000000000023aa       0x56 build/debug.o
                0x00000000000023aa                USART_Printf_Init
 .text._write   0x0000000000002400       0x50 build/debug.o
                0x0000000000002400                _write
 .text._sbrk    0x0000000000002450       0x2e build/debug.o
                0x0000000000002450                _sbrk
 .text._fini    0x000000000000247e        0x2 build/debug.o
                0x000000000000247e                _fini
 .text._init    0x0000000000002480        0x2 build/debug.o
                0x0000000000002480                _init
 .text.ETH_DeInit
                0x0000000000002482       0x14 build/ch32v30x_eth.o
                0x0000000000002482                ETH_DeInit
 .text.ETH_StructInit
                0x0000000000002496       0xd8 build/ch32v30x_eth.o
                0x0000000000002496                ETH_StructInit
 .text.ETH_ReadPHYRegister
                0x000000000000256e       0x5c build/ch32v30x_eth.o
                0x000000000000256e                ETH_ReadPHYRegister
 .text.ETH_WritePHYRegister
                0x00000000000025ca       0x52 build/ch32v30x_eth.o
                0x00000000000025ca                ETH_WritePHYRegister
 .text.ETH_DMATxDescChainInit
                0x000000000000261c       0x40 build/ch32v30x_eth.o
                0x000000000000261c                ETH_DMATxDescChainInit
 .text.ETH_DMARxDescChainInit
                0x000000000000265c       0x50 build/ch32v30x_eth.o
                0x000000000000265c                ETH_DMARxDescChainInit
 .text.ETH_SoftwareReset
                0x00000000000026ac        0xe build/ch32v30x_eth.o
                0x00000000000026ac                ETH_SoftwareReset
 .text.ETH_DMAClearITPendingBit
                0x00000000000026ba        0x8 build/ch32v30x_eth.o
                0x00000000000026ba                ETH_DMAClearITPendingBit
 .text.ETH_FlushTransmitFIFO
                0x00000000000026c2       0x10 build/ch32v30x_eth.o
                0x00000000000026c2                ETH_FlushTransmitFIFO
 .text.ETH_Start
                0x00000000000026d2       0x32 build/ch32v30x_eth.o
                0x00000000000026d2                ETH_Start
 .text.ETH_DMAITConfig
                0x0000000000002704       0x1e build/ch32v30x_eth.o
                0x0000000000002704                ETH_DMAITConfig
 .text.EXTI_ClearITPendingBit
                0x0000000000002722        0xa build/ch32v30x_exti.o
                0x0000000000002722                EXTI_ClearITPendingBit
 .text.FLASH_Unlock
                0x000000000000272c       0x1a build/ch32v30x_flash.o
                0x000000000000272c                FLASH_Unlock
 .text.FLASH_Lock
                0x0000000000002746        0xe build/ch32v30x_flash.o
                0x0000000000002746                FLASH_Lock
 .text.FLASH_GetBank1Status
                0x0000000000002754       0x18 build/ch32v30x_flash.o
                0x0000000000002754                FLASH_GetBank1Status
 .text.FLASH_WaitForLastOperation
                0x000000000000276c       0x20 build/ch32v30x_flash.o
                0x000000000000276c                FLASH_WaitForLastOperation
 .text.FLASH_ProgramWord
                0x000000000000278c       0x54 build/ch32v30x_flash.o
                0x000000000000278c                FLASH_ProgramWord
 .text.FLASH_Unlock_Fast
                0x00000000000027e0       0x1e build/ch32v30x_flash.o
                0x00000000000027e0                FLASH_Unlock_Fast
 .text.FLASH_Lock_Fast
                0x00000000000027fe        0xc build/ch32v30x_flash.o
                0x00000000000027fe                FLASH_Lock_Fast
 .text.FLASH_ErasePage_Fast
                0x000000000000280a       0x2e build/ch32v30x_flash.o
                0x000000000000280a                FLASH_ErasePage_Fast
 .text.GPIO_Init
                0x0000000000002838       0xd6 build/ch32v30x_gpio.o
                0x0000000000002838                GPIO_Init
 .text.GPIO_ReadInputDataBit
                0x000000000000290e        0xa build/ch32v30x_gpio.o
                0x000000000000290e                GPIO_ReadInputDataBit
 .text.GPIO_SetBits
                0x0000000000002918        0x4 build/ch32v30x_gpio.o
                0x0000000000002918                GPIO_SetBits
 .text.GPIO_ResetBits
                0x000000000000291c        0x4 build/ch32v30x_gpio.o
                0x000000000000291c                GPIO_ResetBits
 .text.RCC_GetClocksFreq
                0x0000000000002920      0x19a build/ch32v30x_rcc.o
                0x0000000000002920                RCC_GetClocksFreq
 .text.RCC_AHBPeriphClockCmd
                0x0000000000002aba       0x1e build/ch32v30x_rcc.o
                0x0000000000002aba                RCC_AHBPeriphClockCmd
 .text.RCC_APB2PeriphClockCmd
                0x0000000000002ad8       0x1e build/ch32v30x_rcc.o
                0x0000000000002ad8                RCC_APB2PeriphClockCmd
 .text.RCC_APB1PeriphClockCmd
                0x0000000000002af6       0x1e build/ch32v30x_rcc.o
                0x0000000000002af6                RCC_APB1PeriphClockCmd
 .text.RCC_GetFlagStatus
                0x0000000000002b14       0x2e build/ch32v30x_rcc.o
                0x0000000000002b14                RCC_GetFlagStatus
 .text.RCC_PREDIV2Config
                0x0000000000002b42       0x10 build/ch32v30x_rcc.o
                0x0000000000002b42                RCC_PREDIV2Config
 .text.RCC_PLL3Config
                0x0000000000002b52       0x12 build/ch32v30x_rcc.o
                0x0000000000002b52                RCC_PLL3Config
 .text.RCC_PLL3Cmd
                0x0000000000002b64       0x24 build/ch32v30x_rcc.o
                0x0000000000002b64                RCC_PLL3Cmd
 .text.RCC_AHBPeriphResetCmd
                0x0000000000002b88       0x1e build/ch32v30x_rcc.o
                0x0000000000002b88                RCC_AHBPeriphResetCmd
 .text.TIM_TimeBaseInit
                0x0000000000002ba6       0xaa build/ch32v30x_tim.o
                0x0000000000002ba6                TIM_TimeBaseInit
 .text.TIM_Cmd  0x0000000000002c50       0x18 build/ch32v30x_tim.o
                0x0000000000002c50                TIM_Cmd
 .text.TIM_ITConfig
                0x0000000000002c68       0x12 build/ch32v30x_tim.o
                0x0000000000002c68                TIM_ITConfig
 .text.TIM_ClearITPendingBit
                0x0000000000002c7a        0xc build/ch32v30x_tim.o
                0x0000000000002c7a                TIM_ClearITPendingBit
 .text.USART_Init
                0x0000000000002c86       0xce build/ch32v30x_usart.o
                0x0000000000002c86                USART_Init
 .text.USART_Cmd
                0x0000000000002d54       0x16 build/ch32v30x_usart.o
                0x0000000000002d54                USART_Cmd
 .text.USART_SendData
                0x0000000000002d6a        0x8 build/ch32v30x_usart.o
                0x0000000000002d6a                USART_SendData
 .text.USART_GetFlagStatus
                0x0000000000002d72        0xa build/ch32v30x_usart.o
                0x0000000000002d72                USART_GetFlagStatus
 .text.vector_handler
                0x0000000000002d7c       0xbe build/startup_ch32v30x_D8C.o
                0x0000000000002d80                Ecall_M_Mode_Handler
                0x0000000000002d82                Ecall_U_Mode_Handler
                0x0000000000002d84                Break_Point_Handler
                0x0000000000002d86                SysTick_Handler
                0x0000000000002d88                SW_Handler
                0x0000000000002d8a                WWDG_IRQHandler
                0x0000000000002d8c                PVD_IRQHandler
                0x0000000000002d8e                TAMPER_IRQHandler
                0x0000000000002d90                RTC_IRQHandler
                0x0000000000002d92                FLASH_IRQHandler
                0x0000000000002d94                RCC_IRQHandler
                0x0000000000002d96                EXTI0_IRQHandler
                0x0000000000002d98                EXTI1_IRQHandler
                0x0000000000002d9a                EXTI2_IRQHandler
                0x0000000000002d9c                EXTI3_IRQHandler
                0x0000000000002d9e                EXTI4_IRQHandler
                0x0000000000002da0                DMA1_Channel1_IRQHandler
                0x0000000000002da2                DMA1_Channel2_IRQHandler
                0x0000000000002da4                DMA1_Channel3_IRQHandler
                0x0000000000002da6                DMA1_Channel4_IRQHandler
                0x0000000000002da8                DMA1_Channel5_IRQHandler
                0x0000000000002daa                DMA1_Channel6_IRQHandler
                0x0000000000002dac                DMA1_Channel7_IRQHandler
                0x0000000000002dae                ADC1_2_IRQHandler
                0x0000000000002db0                USB_HP_CAN1_TX_IRQHandler
                0x0000000000002db2                USB_LP_CAN1_RX0_IRQHandler
                0x0000000000002db4                CAN1_RX1_IRQHandler
                0x0000000000002db6                CAN1_SCE_IRQHandler
                0x0000000000002dba                TIM1_BRK_IRQHandler
                0x0000000000002dbc                TIM1_UP_IRQHandler
                0x0000000000002dbe                TIM1_TRG_COM_IRQHandler
                0x0000000000002dc0                TIM1_CC_IRQHandler
                0x0000000000002dc4                TIM3_IRQHandler
                0x0000000000002dc6                TIM4_IRQHandler
                0x0000000000002dc8                I2C1_EV_IRQHandler
                0x0000000000002dca                I2C1_ER_IRQHandler
                0x0000000000002dcc                I2C2_EV_IRQHandler
                0x0000000000002dce                I2C2_ER_IRQHandler
                0x0000000000002dd0                SPI1_IRQHandler
                0x0000000000002dd2                SPI2_IRQHandler
                0x0000000000002dd4                USART1_IRQHandler
                0x0000000000002dd6                USART2_IRQHandler
                0x0000000000002dd8                USART3_IRQHandler
                0x0000000000002dda                EXTI15_10_IRQHandler
                0x0000000000002ddc                RTCAlarm_IRQHandler
                0x0000000000002dde                USBWakeUp_IRQHandler
                0x0000000000002de0                TIM8_BRK_IRQHandler
                0x0000000000002de2                TIM8_UP_IRQHandler
                0x0000000000002de4                TIM8_TRG_COM_IRQHandler
                0x0000000000002de6                TIM8_CC_IRQHandler
                0x0000000000002de8                RNG_IRQHandler
                0x0000000000002dea                FSMC_IRQHandler
                0x0000000000002dec                SDIO_IRQHandler
                0x0000000000002dee                TIM5_IRQHandler
                0x0000000000002df0                SPI3_IRQHandler
                0x0000000000002df2                UART4_IRQHandler
                0x0000000000002df4                UART5_IRQHandler
                0x0000000000002df6                TIM6_IRQHandler
                0x0000000000002df8                TIM7_IRQHandler
                0x0000000000002dfa                DMA2_Channel1_IRQHandler
                0x0000000000002dfc                DMA2_Channel2_IRQHandler
                0x0000000000002dfe                DMA2_Channel3_IRQHandler
                0x0000000000002e00                DMA2_Channel4_IRQHandler
                0x0000000000002e02                DMA2_Channel5_IRQHandler
                0x0000000000002e06                ETH_WKUP_IRQHandler
                0x0000000000002e08                CAN2_TX_IRQHandler
                0x0000000000002e0a                CAN2_RX0_IRQHandler
                0x0000000000002e0c                CAN2_RX1_IRQHandler
                0x0000000000002e0e                CAN2_SCE_IRQHandler
                0x0000000000002e10                OTG_FS_IRQHandler
                0x0000000000002e12                USBHSWakeup_IRQHandler
                0x0000000000002e14                USBHS_IRQHandler
                0x0000000000002e16                DVP_IRQHandler
                0x0000000000002e18                UART6_IRQHandler
                0x0000000000002e1a                UART7_IRQHandler
                0x0000000000002e1c                UART8_IRQHandler
                0x0000000000002e1e                TIM9_BRK_IRQHandler
                0x0000000000002e20                TIM9_UP_IRQHandler
                0x0000000000002e22                TIM9_TRG_COM_IRQHandler
                0x0000000000002e24                TIM9_CC_IRQHandler
                0x0000000000002e26                TIM10_BRK_IRQHandler
                0x0000000000002e28                TIM10_UP_IRQHandler
                0x0000000000002e2a                TIM10_TRG_COM_IRQHandler
                0x0000000000002e2c                TIM10_CC_IRQHandler
                0x0000000000002e2e                DMA2_Channel6_IRQHandler
                0x0000000000002e30                DMA2_Channel7_IRQHandler
                0x0000000000002e32                DMA2_Channel8_IRQHandler
                0x0000000000002e34                DMA2_Channel9_IRQHandler
                0x0000000000002e36                DMA2_Channel10_IRQHandler
                0x0000000000002e38                DMA2_Channel11_IRQHandler
 .text.handle_reset
                0x0000000000002e3a       0x9e build/startup_ch32v30x_D8C.o
                0x0000000000002e3a                handle_reset
 .text.WCHNET_PeriodicHandle
                0x0000000000002ed8      0x1a6 NetLib/libwchnet.a(eth_api.o)
                0x0000000000002ed8                WCHNET_PeriodicHandle
 .text.WCHNET_NetInput
                0x000000000000307e       0x24 NetLib/libwchnet.a(eth_api.o)
                0x000000000000307e                WCHNET_NetInput
 .text.WCHNET_PhyStatus
                0x00000000000030a2       0x4e NetLib/libwchnet.a(eth_api.o)
                0x00000000000030a2                WCHNET_PhyStatus
 .text.WCHNET_Rx
                0x00000000000030f0       0x6a NetLib/libwchnet.a(eth_api.o)
                0x00000000000030f0                WCHNET_Rx
 .text.setRxBuffAddr
                0x000000000000315a       0x16 NetLib/libwchnet.a(eth_api.o)
                0x000000000000315a                setRxBuffAddr
 .text.WCHNET_Tx
                0x0000000000003170       0x36 NetLib/libwchnet.a(eth_api.o)
                0x0000000000003170                WCHNET_Tx
 .text.getTxBuffAddr
                0x00000000000031a6       0x54 NetLib/libwchnet.a(eth_api.o)
                0x00000000000031a6                getTxBuffAddr
 .text.IPCheckParaInit
                0x00000000000031fa       0x22 NetLib/libwchnet.a(ipcheck.o)
                0x00000000000031fa                IPCheckParaInit
 .text.SelIPARPSend
                0x000000000000321c       0x38 NetLib/libwchnet.a(ipcheck.o)
                0x000000000000321c                SelIPARPSend
 .text.IPCheckTmr
                0x0000000000003254       0x42 NetLib/libwchnet.a(ipcheck.o)
                0x0000000000003254                IPCheckTmr
 .text.IPConflictHandle
                0x0000000000003296       0x2e NetLib/libwchnet.a(ipcheck.o)
                0x0000000000003296                IPConflictHandle
 .text.NET_TCPError
                0x00000000000032c4        0x2 NetLib/libwchnet.a(socket.o)
                0x00000000000032c4                NET_TCPError
 .text.LwipTCPSendCallBack
                0x00000000000032c6       0x3e NetLib/libwchnet.a(socket.o)
                0x00000000000032c6                LwipTCPSendCallBack
 .text.LwipTCPPollCallBack
                0x0000000000003304        0x4 NetLib/libwchnet.a(socket.o)
                0x0000000000003304                LwipTCPPollCallBack
 .text.SocketIPRAWReceive
                0x0000000000003308       0xc8 NetLib/libwchnet.a(socket.o)
                0x0000000000003308                SocketIPRAWReceive
 .text.SocketUdpReceive
                0x00000000000033d0       0xde NetLib/libwchnet.a(socket.o)
                0x00000000000033d0                SocketUdpReceive
 .text.WCHSocketTCPReceive
                0x00000000000034ae       0xda NetLib/libwchnet.a(socket.o)
                0x00000000000034ae                WCHSocketTCPReceive
 .text.LwipTcpConnectedCallBack
                0x0000000000003588       0x42 NetLib/libwchnet.a(socket.o)
                0x0000000000003588                LwipTcpConnectedCallBack
 .text.WCHTCPServerAccept
                0x00000000000035ca       0xce NetLib/libwchnet.a(socket.o)
                0x00000000000035ca                WCHTCPServerAccept
 .text.ErrorEncode
                0x0000000000003698       0x1a NetLib/libwchnet.a(socket.o)
                0x0000000000003698                ErrorEncode
 .text.WCHSocketInit
                0x00000000000036b2       0x54 NetLib/libwchnet.a(socket.o)
                0x00000000000036b2                WCHSocketInit
 .text.WCHNET_Init
                0x0000000000003706       0xb4 NetLib/libwchnet.a(socket.o)
                0x0000000000003706                WCHNET_Init
 .text.WCHNET_ConfigLIB
                0x00000000000037ba      0x128 NetLib/libwchnet.a(socket.o)
                0x00000000000037ba                WCHNET_ConfigLIB
 .text.WCHNET_GetVer
                0x00000000000038e2        0x4 NetLib/libwchnet.a(socket.o)
                0x00000000000038e2                WCHNET_GetVer
 .text.WCHFindCorrectTCBPcb
                0x00000000000038e6       0x5e NetLib/libwchnet.a(socket.o)
                0x00000000000038e6                WCHFindCorrectTCBPcb
 .text.WCHNET_SocketCreat
                0x0000000000003944      0x1da NetLib/libwchnet.a(socket.o)
                0x0000000000003944                WCHNET_SocketCreat
 .text.tcp_recved_socket
                0x0000000000003b1e       0x3a NetLib/libwchnet.a(socket.o)
                0x0000000000003b1e                tcp_recved_socket
 .text.WCHNET_ModifyRecvBuf
                0x0000000000003b58       0x52 NetLib/libwchnet.a(socket.o)
                0x0000000000003b58                WCHNET_ModifyRecvBuf
 .text.WCHNET_SocketRecv
                0x0000000000003baa       0xfc NetLib/libwchnet.a(socket.o)
                0x0000000000003baa                WCHNET_SocketRecv
 .text.WCHNET_SocketRecvLen
                0x0000000000003ca6       0x26 NetLib/libwchnet.a(socket.o)
                0x0000000000003ca6                WCHNET_SocketRecvLen
 .text.SocketIPRawSend
                0x0000000000003ccc       0xc6 NetLib/libwchnet.a(socket.o)
                0x0000000000003ccc                SocketIPRawSend
 .text.SocketUdpSend
                0x0000000000003d92       0xc6 NetLib/libwchnet.a(socket.o)
                0x0000000000003d92                SocketUdpSend
 .text.SocketTcpSend
                0x0000000000003e58      0x108 NetLib/libwchnet.a(socket.o)
                0x0000000000003e58                SocketTcpSend
 .text.WCHNET_SocketSend
                0x0000000000003f60       0x56 NetLib/libwchnet.a(socket.o)
                0x0000000000003f60                WCHNET_SocketSend
 .text.WCHScokedIntHandle
                0x0000000000003fb6       0x52 NetLib/libwchnet.a(socket.o)
                0x0000000000003fb6                WCHScokedIntHandle
 .text.LwipRemoveTcpPcb
                0x0000000000004008       0xae NetLib/libwchnet.a(socket.o)
                0x0000000000004008                LwipRemoveTcpPcb
 .text.WCHNET_QueryGlobalInt
                0x00000000000040b6       0x3e NetLib/libwchnet.a(socket.o)
                0x00000000000040b6                WCHNET_QueryGlobalInt
 .text.WCHNET_GetGlobalInt
                0x00000000000040f4       0x14 NetLib/libwchnet.a(socket.o)
                0x00000000000040f4                WCHNET_GetGlobalInt
 .text.WCHNET_GetSocketInt
                0x0000000000004108       0x2a NetLib/libwchnet.a(socket.o)
                0x0000000000004108                WCHNET_GetSocketInt
 .text.WCHNET_GetPHYStatus
                0x0000000000004132        0xa NetLib/libwchnet.a(socket.o)
                0x0000000000004132                WCHNET_GetPHYStatus
 .text.WCHNET_SocketConnect
                0x000000000000413c       0x74 NetLib/libwchnet.a(socket.o)
                0x000000000000413c                WCHNET_SocketConnect
 .text.WCHNET_SocketListen
                0x00000000000041b0       0x6e NetLib/libwchnet.a(socket.o)
                0x00000000000041b0                WCHNET_SocketListen
 .text.CloseUpdConnect
                0x000000000000421e       0x38 NetLib/libwchnet.a(socket.o)
                0x000000000000421e                CloseUpdConnect
 .text.CloseIPRAWConnect
                0x0000000000004256       0x38 NetLib/libwchnet.a(socket.o)
                0x0000000000004256                CloseIPRAWConnect
 .text.CloseTcpPCB
                0x000000000000428e       0x84 NetLib/libwchnet.a(socket.o)
                0x000000000000428e                CloseTcpPCB
 .text.WCHNET_SocketClose
                0x0000000000004312       0x60 NetLib/libwchnet.a(socket.o)
                0x0000000000004312                WCHNET_SocketClose
 .text.QueryPingEnable
                0x0000000000004372        0xe NetLib/libwchnet.a(socket.o)
                0x0000000000004372                QueryPingEnable
 .text.LwipUnreachPort
                0x0000000000004380       0x1a NetLib/libwchnet.a(socket.o)
                0x0000000000004380                LwipUnreachPort
 .text.LwipArpCheck
                0x000000000000439a        0xc NetLib/libwchnet.a(socket.o)
                0x000000000000439a                LwipArpCheck
 .text.find_entry
                0x00000000000043a6      0x182 NetLib/libwchnet.a(etharp.o)
 .text.update_arp_entry
                0x0000000000004528       0xba NetLib/libwchnet.a(etharp.o)
 .text.etharp_tmr
                0x00000000000045e2       0x52 NetLib/libwchnet.a(etharp.o)
                0x00000000000045e2                etharp_tmr
 .text.etharp_ip_input
                0x0000000000004634       0x5a NetLib/libwchnet.a(etharp.o)
                0x0000000000004634                etharp_ip_input
 .text.etharp_arp_input
                0x000000000000468e      0x170 NetLib/libwchnet.a(etharp.o)
                0x000000000000468e                etharp_arp_input
 .text.etharp_request
                0x00000000000047fe       0xd6 NetLib/libwchnet.a(etharp.o)
                0x00000000000047fe                etharp_request
 .text.etharp_query
                0x00000000000048d4       0xee NetLib/libwchnet.a(etharp.o)
                0x00000000000048d4                etharp_query
 .text.etharp_output
                0x00000000000049c2      0x13c NetLib/libwchnet.a(etharp.o)
                0x00000000000049c2                etharp_output
 .text.ethernet_input
                0x0000000000004afe       0x8e NetLib/libwchnet.a(etharp.o)
                0x0000000000004afe                ethernet_input
 .text.ethernetif_init
                0x0000000000004b8c       0x64 NetLib/libwchnet.a(ethernetif.o)
                0x0000000000004b8c                ethernetif_init
 .text.low_level_output
                0x0000000000004bf0       0x5a NetLib/libwchnet.a(ethernetif.o)
 .text.ethernetif_input
                0x0000000000004c4a       0x78 NetLib/libwchnet.a(ethernetif.o)
                0x0000000000004c4a                ethernetif_input
 .text.wch_ethernetif_init
                0x0000000000004cc2       0x76 NetLib/libwchnet.a(ethernetif.o)
                0x0000000000004cc2                wch_ethernetif_init
 .text.htons    0x0000000000004d38        0xe NetLib/libwchnet.a(inet.o)
                0x0000000000004d38                htons
 .text.ntohs    0x0000000000004d46        0xe NetLib/libwchnet.a(inet.o)
                0x0000000000004d46                ntohs
 .text.htonl    0x0000000000004d54       0x24 NetLib/libwchnet.a(inet.o)
                0x0000000000004d54                htonl
 .text.ntohl    0x0000000000004d78        0xc NetLib/libwchnet.a(inet.o)
                0x0000000000004d78                ntohl
 .text.ip_route
                0x0000000000004d84       0x4c NetLib/libwchnet.a(ip.o)
                0x0000000000004d84                ip_route
 .text.ip_input
                0x0000000000004dd0      0x2a2 NetLib/libwchnet.a(ip.o)
                0x0000000000004dd0                ip_input
 .text.ip_output_if
                0x0000000000005072      0x162 NetLib/libwchnet.a(ip.o)
                0x0000000000005072                ip_output_if
 .text.ip_output
                0x00000000000051d4       0x36 NetLib/libwchnet.a(ip.o)
                0x00000000000051d4                ip_output
 .text.ip_addr_isbroadcast
                0x000000000000520a       0x4a NetLib/libwchnet.a(ip_addr.o)
                0x000000000000520a                ip_addr_isbroadcast
 .text.ip_reass_tmr
                0x0000000000005254       0xee NetLib/libwchnet.a(ip_frag.o)
                0x0000000000005254                ip_reass_tmr
 .text.ip_reass
                0x0000000000005342      0x3e4 NetLib/libwchnet.a(ip_frag.o)
                0x0000000000005342                ip_reass
 .text.ip_frag  0x0000000000005726      0x186 NetLib/libwchnet.a(ip_frag.o)
                0x0000000000005726                ip_frag
 .text.dhcp_set_state
                0x00000000000058ac        0xe NetLib/libwchnet.a(dhcp.o)
 .text.dhcp_option
                0x00000000000058ba       0x20 NetLib/libwchnet.a(dhcp.o)
 .text.dhcp_option_byte
                0x00000000000058da       0x12 NetLib/libwchnet.a(dhcp.o)
 .text.dhcp_option_long
                0x00000000000058ec       0x48 NetLib/libwchnet.a(dhcp.o)
 .text.dhcp_option_trailer
                0x0000000000005934       0x34 NetLib/libwchnet.a(dhcp.o)
 .text.dhcp_create_request
                0x0000000000005968      0x186 NetLib/libwchnet.a(dhcp.o)
 .text.dhcp_delete_request
                0x0000000000005aee       0x1e NetLib/libwchnet.a(dhcp.o)
 .text.dhcp_arp_reply
                0x0000000000005b0c      0x18a NetLib/libwchnet.a(dhcp.o)
                0x0000000000005b0c                dhcp_arp_reply
 .text.lwip_init
                0x0000000000005c96       0x18 NetLib/libwchnet.a(init.o)
                0x0000000000005c96                lwip_init
 .text.mem_init
                0x0000000000005cae       0x3e NetLib/libwchnet.a(mem.o)
                0x0000000000005cae                mem_init
 .text.mem_free
                0x0000000000005cec       0x84 NetLib/libwchnet.a(mem.o)
                0x0000000000005cec                mem_free
 .text.mem_realloc
                0x0000000000005d70       0xca NetLib/libwchnet.a(mem.o)
                0x0000000000005d70                mem_realloc
 .text.mem_malloc
                0x0000000000005e3a       0xd0 NetLib/libwchnet.a(mem.o)
                0x0000000000005e3a                mem_malloc
 .text.memp_init
                0x0000000000005f0a       0x50 NetLib/libwchnet.a(memp.o)
                0x0000000000005f0a                memp_init
 .text.memp_malloc
                0x0000000000005f5a       0x20 NetLib/libwchnet.a(memp.o)
                0x0000000000005f5a                memp_malloc
 .text.memp_free
                0x0000000000005f7a       0x18 NetLib/libwchnet.a(memp.o)
                0x0000000000005f7a                memp_free
 .text.netif_set_ipaddr
                0x0000000000005f92       0x9e NetLib/libwchnet.a(netif.o)
                0x0000000000005f92                netif_set_ipaddr
 .text.netif_set_addr
                0x0000000000006030       0x4e NetLib/libwchnet.a(netif.o)
                0x0000000000006030                netif_set_addr
 .text.netif_add
                0x000000000000607e       0x5a NetLib/libwchnet.a(netif.o)
                0x000000000000607e                netif_add
 .text.netif_set_default
                0x00000000000060d8        0x6 NetLib/libwchnet.a(netif.o)
                0x00000000000060d8                netif_set_default
 .text.netif_is_up
                0x00000000000060de        0x8 NetLib/libwchnet.a(netif.o)
                0x00000000000060de                netif_is_up
 .text.pbuf_header
                0x00000000000060e6       0x6e NetLib/libwchnet.a(pbuf.o)
                0x00000000000060e6                pbuf_header
 .text.pbuf_free
                0x0000000000006154       0x56 NetLib/libwchnet.a(pbuf.o)
                0x0000000000006154                pbuf_free
 .text.pbuf_alloc
                0x00000000000061aa      0x148 NetLib/libwchnet.a(pbuf.o)
                0x00000000000061aa                pbuf_alloc
 .text.pbuf_realloc
                0x00000000000062f2       0x58 NetLib/libwchnet.a(pbuf.o)
                0x00000000000062f2                pbuf_realloc
 .text.pbuf_clen
                0x000000000000634a       0x12 NetLib/libwchnet.a(pbuf.o)
                0x000000000000634a                pbuf_clen
 .text.pbuf_ref
                0x000000000000635c        0xa NetLib/libwchnet.a(pbuf.o)
                0x000000000000635c                pbuf_ref
 .text.pbuf_cat
                0x0000000000006366       0x1c NetLib/libwchnet.a(pbuf.o)
                0x0000000000006366                pbuf_cat
 .text.pbuf_chain
                0x0000000000006382       0x14 NetLib/libwchnet.a(pbuf.o)
                0x0000000000006382                pbuf_chain
 .text.pbuf_copy
                0x0000000000006396       0xa4 NetLib/libwchnet.a(pbuf.o)
                0x0000000000006396                pbuf_copy
 .text.raw_input
                0x000000000000643a       0x70 NetLib/libwchnet.a(raw.o)
                0x000000000000643a                raw_input
 .text.raw_bind
                0x00000000000064aa       0x1e NetLib/libwchnet.a(raw.o)
                0x00000000000064aa                raw_bind
 .text.raw_connect
                0x00000000000064c8       0x1e NetLib/libwchnet.a(raw.o)
                0x00000000000064c8                raw_connect
 .text.raw_recv
                0x00000000000064e6        0x6 NetLib/libwchnet.a(raw.o)
                0x00000000000064e6                raw_recv
 .text.raw_sendto
                0x00000000000064ec       0x86 NetLib/libwchnet.a(raw.o)
                0x00000000000064ec                raw_sendto
 .text.raw_send
                0x0000000000006572       0x10 NetLib/libwchnet.a(raw.o)
                0x0000000000006572                raw_send
 .text.raw_remove
                0x0000000000006582       0x30 NetLib/libwchnet.a(raw.o)
                0x0000000000006582                raw_remove
 .text.raw_new  0x00000000000065b2       0x30 NetLib/libwchnet.a(raw.o)
                0x00000000000065b2                raw_new
 .text.tcp_accept_null
                0x00000000000065e2        0x4 NetLib/libwchnet.a(tcp.o)
 .text.tcp_new_port
                0x00000000000065e6       0x5c NetLib/libwchnet.a(tcp.o)
 .text.tcp_bind
                0x0000000000006642      0x11e NetLib/libwchnet.a(tcp.o)
                0x0000000000006642                tcp_bind
 .text.tcp_listen_with_backlog
                0x0000000000006760       0x9a NetLib/libwchnet.a(tcp.o)
                0x0000000000006760                tcp_listen_with_backlog
 .text.tcp_update_rcv_ann_wnd
                0x00000000000067fa       0x48 NetLib/libwchnet.a(tcp.o)
                0x00000000000067fa                tcp_update_rcv_ann_wnd
 .text.tcp_recved
                0x0000000000006842       0x3c NetLib/libwchnet.a(tcp.o)
                0x0000000000006842                tcp_recved
 .text.tcp_seg_free
                0x000000000000687e       0x2a NetLib/libwchnet.a(tcp.o)
                0x000000000000687e                tcp_seg_free
 .text.tcp_segs_free
                0x00000000000068a8       0x1e NetLib/libwchnet.a(tcp.o)
                0x00000000000068a8                tcp_segs_free
 .text.tcp_seg_copy
                0x00000000000068c6       0x28 NetLib/libwchnet.a(tcp.o)
                0x00000000000068c6                tcp_seg_copy
 .text.tcp_arg  0x00000000000068ee        0x4 NetLib/libwchnet.a(tcp.o)
                0x00000000000068ee                tcp_arg
 .text.tcp_recv
                0x00000000000068f2        0x6 NetLib/libwchnet.a(tcp.o)
                0x00000000000068f2                tcp_recv
 .text.tcp_sent
                0x00000000000068f8        0x6 NetLib/libwchnet.a(tcp.o)
                0x00000000000068f8                tcp_sent
 .text.tcp_err  0x00000000000068fe        0x6 NetLib/libwchnet.a(tcp.o)
                0x00000000000068fe                tcp_err
 .text.tcp_accept
                0x0000000000006904        0x4 NetLib/libwchnet.a(tcp.o)
                0x0000000000006904                tcp_accept
 .text.tcp_poll
                0x0000000000006908        0xa NetLib/libwchnet.a(tcp.o)
                0x0000000000006908                tcp_poll
 .text.tcp_pcb_purge
                0x0000000000006912       0x4e NetLib/libwchnet.a(tcp.o)
                0x0000000000006912                tcp_pcb_purge
 .text.tcp_slowtmr
                0x0000000000006960      0x2a6 NetLib/libwchnet.a(tcp.o)
                0x0000000000006960                tcp_slowtmr
 .text.tcp_pcb_remove
                0x0000000000006c06       0x72 NetLib/libwchnet.a(tcp.o)
                0x0000000000006c06                tcp_pcb_remove
 .text.tcp_close
                0x0000000000006c78       0xb2 NetLib/libwchnet.a(tcp.o)
                0x0000000000006c78                tcp_close
 .text.tcp_recv_null
                0x0000000000006d2a       0x30 NetLib/libwchnet.a(tcp.o)
                0x0000000000006d2a                tcp_recv_null
 .text.tcp_fasttmr
                0x0000000000006d5a       0x62 NetLib/libwchnet.a(tcp.o)
                0x0000000000006d5a                tcp_fasttmr
 .text.tcp_tmr  0x0000000000006dbc       0x22 NetLib/libwchnet.a(tcp.o)
                0x0000000000006dbc                tcp_tmr
 .text.tcp_abandon
                0x0000000000006dde       0xa2 NetLib/libwchnet.a(tcp.o)
                0x0000000000006dde                tcp_abandon
 .text.tcp_next_iss
                0x0000000000006e80       0x10 NetLib/libwchnet.a(tcp.o)
                0x0000000000006e80                tcp_next_iss
 .text.tcp_alloc
                0x0000000000006e90      0x13c NetLib/libwchnet.a(tcp.o)
                0x0000000000006e90                tcp_alloc
 .text.tcp_new  0x0000000000006fcc       0x10 NetLib/libwchnet.a(tcp.o)
                0x0000000000006fcc                tcp_new
 .text.tcp_eff_send_mss
                0x0000000000006fdc       0x2e NetLib/libwchnet.a(tcp.o)
                0x0000000000006fdc                tcp_eff_send_mss
 .text.tcp_connect
                0x000000000000700a       0xf0 NetLib/libwchnet.a(tcp.o)
                0x000000000000700a                tcp_connect
 .text.RemoveTimeWaiTCP
                0x00000000000070fa       0x3a NetLib/libwchnet.a(tcp.o)
                0x00000000000070fa                RemoveTimeWaiTCP
 .text.tcp_oos_insert_segment
                0x0000000000007134       0xd6 NetLib/libwchnet.a(tcp_in.o)
 .text.tcp_receive
                0x000000000000720a      0x8f8 NetLib/libwchnet.a(tcp_in.o)
 .text.tcp_parseopt.isra.0
                0x0000000000007b02       0xae NetLib/libwchnet.a(tcp_in.o)
 .text.tcp_input
                0x0000000000007bb0      0x9dc NetLib/libwchnet.a(tcp_in.o)
                0x0000000000007bb0                tcp_input
 .text.tcp_output_set_header.isra.0.constprop.1
                0x000000000000858c       0xdc NetLib/libwchnet.a(tcp_out.o)
 .text.tcp_enqueue
                0x0000000000008668      0x450 NetLib/libwchnet.a(tcp_out.o)
                0x0000000000008668                tcp_enqueue
 .text.tcp_send_ctrl
                0x0000000000008ab8       0x16 NetLib/libwchnet.a(tcp_out.o)
                0x0000000000008ab8                tcp_send_ctrl
 .text.tcp_write
                0x0000000000008ace       0x30 NetLib/libwchnet.a(tcp_out.o)
                0x0000000000008ace                tcp_write
 .text.tcp_send_empty_ack
                0x0000000000008afe       0x80 NetLib/libwchnet.a(tcp_out.o)
                0x0000000000008afe                tcp_send_empty_ack
 .text.tcp_output
                0x0000000000008b7e      0x380 NetLib/libwchnet.a(tcp_out.o)
                0x0000000000008b7e                tcp_output
 .text.tcp_rst  0x0000000000008efe      0x110 NetLib/libwchnet.a(tcp_out.o)
                0x0000000000008efe                tcp_rst
 .text.tcp_rexmit_rto
                0x000000000000900e       0x36 NetLib/libwchnet.a(tcp_out.o)
                0x000000000000900e                tcp_rexmit_rto
 .text.tcp_rexmit
                0x0000000000009044       0x84 NetLib/libwchnet.a(tcp_out.o)
                0x0000000000009044                tcp_rexmit
 .text.tcp_rexmit_fast
                0x00000000000090c8       0x62 NetLib/libwchnet.a(tcp_out.o)
                0x00000000000090c8                tcp_rexmit_fast
 .text.tcp_keepalive
                0x000000000000912a       0x66 NetLib/libwchnet.a(tcp_out.o)
                0x000000000000912a                tcp_keepalive
 .text.tcp_zero_window_probe
                0x0000000000009190       0xda NetLib/libwchnet.a(tcp_out.o)
                0x0000000000009190                tcp_zero_window_probe
 .text.udp_input
                0x000000000000926a      0x240 NetLib/libwchnet.a(udp.o)
                0x000000000000926a                udp_input
 .text.udp_bind
                0x00000000000094aa       0x9a NetLib/libwchnet.a(udp.o)
                0x00000000000094aa                udp_bind
 .text.udp_sendto_if
                0x0000000000009544       0xde NetLib/libwchnet.a(udp.o)
                0x0000000000009544                udp_sendto_if
 .text.udp_sendto
                0x0000000000009622       0x2e NetLib/libwchnet.a(udp.o)
                0x0000000000009622                udp_sendto
 .text.udp_send
                0x0000000000009650       0x12 NetLib/libwchnet.a(udp.o)
                0x0000000000009650                udp_send
 .text.udp_connect
                0x0000000000009662       0x86 NetLib/libwchnet.a(udp.o)
                0x0000000000009662                udp_connect
 .text.udp_recv
                0x00000000000096e8        0x6 NetLib/libwchnet.a(udp.o)
                0x00000000000096e8                udp_recv
 .text.udp_remove
                0x00000000000096ee       0x30 NetLib/libwchnet.a(udp.o)
                0x00000000000096ee                udp_remove
 .text.udp_new  0x000000000000971e       0x24 NetLib/libwchnet.a(udp.o)
                0x000000000000971e                udp_new
 .text.icmp_send_response.isra.0
                0x0000000000009742       0x7c NetLib/libwchnet.a(icmp.o)
 .text.icmp_input
                0x00000000000097be      0x258 NetLib/libwchnet.a(icmp.o)
                0x00000000000097be                icmp_input
 .text.icmp_dest_unreach
                0x0000000000009a16       0x14 NetLib/libwchnet.a(icmp.o)
                0x0000000000009a16                icmp_dest_unreach
 .text.icmp_time_exceeded
                0x0000000000009a2a       0x14 NetLib/libwchnet.a(icmp.o)
                0x0000000000009a2a                icmp_time_exceeded
 .text.lwip_standard_chksum
                0x0000000000009a3e       0x7e NetLib/libwchnet.a(inet_chksum.o)
 .text.inet_chksum_pseudo
                0x0000000000009abc      0x100 NetLib/libwchnet.a(inet_chksum.o)
                0x0000000000009abc                inet_chksum_pseudo
 .text.inet_chksum
                0x0000000000009bbc       0x14 NetLib/libwchnet.a(inet_chksum.o)
                0x0000000000009bbc                inet_chksum
 .text.inet_chksum_pbuf
                0x0000000000009bd0       0x72 NetLib/libwchnet.a(inet_chksum.o)
                0x0000000000009bd0                inet_chksum_pbuf
 .text.atexit   0x0000000000009c42        0xc e:/program/mounriver/mounriver_studio/toolchain/risc-v embedded gcc/bin/../lib/gcc/riscv-none-embed/8.2.0/../../../../riscv-none-embed/lib/rv32ecxw/ilp32e\libg_nano.a(lib_a-atexit.o)
                0x0000000000009c42                atexit
 .text.atoi     0x0000000000009c4e        0x6 e:/program/mounriver/mounriver_studio/toolchain/risc-v embedded gcc/bin/../lib/gcc/riscv-none-embed/8.2.0/../../../../riscv-none-embed/lib/rv32ecxw/ilp32e\libg_nano.a(lib_a-atoi.o)
                0x0000000000009c4e                atoi
 .text.__libc_fini_array
                0x0000000000009c54       0x3a e:/program/mounriver/mounriver_studio/toolchain/risc-v embedded gcc/bin/../lib/gcc/riscv-none-embed/8.2.0/../../../../riscv-none-embed/lib/rv32ecxw/ilp32e\libg_nano.a(lib_a-fini.o)
                0x0000000000009c54                __libc_fini_array
 .text.__libc_init_array
                0x0000000000009c8e       0x76 e:/program/mounriver/mounriver_studio/toolchain/risc-v embedded gcc/bin/../lib/gcc/riscv-none-embed/8.2.0/../../../../riscv-none-embed/lib/rv32ecxw/ilp32e\libg_nano.a(lib_a-init.o)
                0x0000000000009c8e                __libc_init_array
 .text.memcpy   0x0000000000009d04       0xd2 e:/program/mounriver/mounriver_studio/toolchain/risc-v embedded gcc/bin/../lib/gcc/riscv-none-embed/8.2.0/../../../../riscv-none-embed/lib/rv32ecxw/ilp32e\libg_nano.a(lib_a-memcpy.o)
                0x0000000000009d04                memcpy
 .text.printf   0x0000000000009dd6       0x42 e:/program/mounriver/mounriver_studio/toolchain/risc-v embedded gcc/bin/../lib/gcc/riscv-none-embed/8.2.0/../../../../riscv-none-embed/lib/rv32ecxw/ilp32e\libg_nano.a(lib_a-printf.o)
                0x0000000000009dd6                iprintf
                0x0000000000009dd6                printf
 .text.putchar  0x0000000000009e18       0x2c e:/program/mounriver/mounriver_studio/toolchain/risc-v embedded gcc/bin/../lib/gcc/riscv-none-embed/8.2.0/../../../../riscv-none-embed/lib/rv32ecxw/ilp32e\libg_nano.a(lib_a-putchar.o)
                0x0000000000009e18                putchar
 .text._puts_r  0x0000000000009e44       0xce e:/program/mounriver/mounriver_studio/toolchain/risc-v embedded gcc/bin/../lib/gcc/riscv-none-embed/8.2.0/../../../../riscv-none-embed/lib/rv32ecxw/ilp32e\libg_nano.a(lib_a-puts.o)
                0x0000000000009e44                _puts_r
 .text.puts     0x0000000000009f12        0xc e:/program/mounriver/mounriver_studio/toolchain/risc-v embedded gcc/bin/../lib/gcc/riscv-none-embed/8.2.0/../../../../riscv-none-embed/lib/rv32ecxw/ilp32e\libg_nano.a(lib_a-puts.o)
                0x0000000000009f12                puts
 .text.sprintf  0x0000000000009f1e       0x46 e:/program/mounriver/mounriver_studio/toolchain/risc-v embedded gcc/bin/../lib/gcc/riscv-none-embed/8.2.0/../../../../riscv-none-embed/lib/rv32ecxw/ilp32e\libg_nano.a(lib_a-sprintf.o)
                0x0000000000009f1e                siprintf
                0x0000000000009f1e                sprintf
 .text.strcpy   0x0000000000009f64       0x10 e:/program/mounriver/mounriver_studio/toolchain/risc-v embedded gcc/bin/../lib/gcc/riscv-none-embed/8.2.0/../../../../riscv-none-embed/lib/rv32ecxw/ilp32e\libg_nano.a(lib_a-strcpy.o)
                0x0000000000009f64                strcpy
 .text.strlen   0x0000000000009f74       0x12 e:/program/mounriver/mounriver_studio/toolchain/risc-v embedded gcc/bin/../lib/gcc/riscv-none-embed/8.2.0/../../../../riscv-none-embed/lib/rv32ecxw/ilp32e\libg_nano.a(lib_a-strlen.o)
                0x0000000000009f74                strlen
 .text.strstr   0x0000000000009f86       0x34 e:/program/mounriver/mounriver_studio/toolchain/risc-v embedded gcc/bin/../lib/gcc/riscv-none-embed/8.2.0/../../../../riscv-none-embed/lib/rv32ecxw/ilp32e\libg_nano.a(lib_a-strstr.o)
                0x0000000000009f86                strstr
 .text.strtok   0x0000000000009fba       0x7e e:/program/mounriver/mounriver_studio/toolchain/risc-v embedded gcc/bin/../lib/gcc/riscv-none-embed/8.2.0/../../../../riscv-none-embed/lib/rv32ecxw/ilp32e\libg_nano.a(lib_a-strtok.o)
                0x0000000000009fba                strtok
 .text.__strtok_r
                0x000000000000a038       0x5c e:/program/mounriver/mounriver_studio/toolchain/risc-v embedded gcc/bin/../lib/gcc/riscv-none-embed/8.2.0/../../../../riscv-none-embed/lib/rv32ecxw/ilp32e\libg_nano.a(lib_a-strtok_r.o)
                0x000000000000a038                __strtok_r
 .text._strtol_l.isra.0
                0x000000000000a094      0x168 e:/program/mounriver/mounriver_studio/toolchain/risc-v embedded gcc/bin/../lib/gcc/riscv-none-embed/8.2.0/../../../../riscv-none-embed/lib/rv32ecxw/ilp32e\libg_nano.a(lib_a-strtol.o)
 .text.strtol   0x000000000000a1fc       0x1e e:/program/mounriver/mounriver_studio/toolchain/risc-v embedded gcc/bin/../lib/gcc/riscv-none-embed/8.2.0/../../../../riscv-none-embed/lib/rv32ecxw/ilp32e\libg_nano.a(lib_a-strtol.o)
                0x000000000000a1fc                strtol
 .text.__swbuf_r
                0x000000000000a21a       0xc2 e:/program/mounriver/mounriver_studio/toolchain/risc-v embedded gcc/bin/../lib/gcc/riscv-none-embed/8.2.0/../../../../riscv-none-embed/lib/rv32ecxw/ilp32e\libg_nano.a(lib_a-wbuf.o)
                0x000000000000a21a                __swbuf_r
 .text.__swsetup_r
                0x000000000000a2dc       0xfe e:/program/mounriver/mounriver_studio/toolchain/risc-v embedded gcc/bin/../lib/gcc/riscv-none-embed/8.2.0/../../../../riscv-none-embed/lib/rv32ecxw/ilp32e\libg_nano.a(lib_a-wsetup.o)
                0x000000000000a2dc                __swsetup_r
 .text.__register_exitproc
                0x000000000000a3da       0x82 e:/program/mounriver/mounriver_studio/toolchain/risc-v embedded gcc/bin/../lib/gcc/riscv-none-embed/8.2.0/../../../../riscv-none-embed/lib/rv32ecxw/ilp32e\libg_nano.a(lib_a-__atexit.o)
                0x000000000000a3da                __register_exitproc
 .text.startup.register_fini
                0x000000000000a45c       0x18 e:/program/mounriver/mounriver_studio/toolchain/risc-v embedded gcc/bin/../lib/gcc/riscv-none-embed/8.2.0/../../../../riscv-none-embed/lib/rv32ecxw/ilp32e\libg_nano.a(lib_a-__call_atexit.o)
 .text.__sflush_r
                0x000000000000a474      0x128 e:/program/mounriver/mounriver_studio/toolchain/risc-v embedded gcc/bin/../lib/gcc/riscv-none-embed/8.2.0/../../../../riscv-none-embed/lib/rv32ecxw/ilp32e\libg_nano.a(lib_a-fflush.o)
                0x000000000000a474                __sflush_r
 .text._fflush_r
                0x000000000000a59c       0x66 e:/program/mounriver/mounriver_studio/toolchain/risc-v embedded gcc/bin/../lib/gcc/riscv-none-embed/8.2.0/../../../../riscv-none-embed/lib/rv32ecxw/ilp32e\libg_nano.a(lib_a-fflush.o)
                0x000000000000a59c                _fflush_r
 .text.std      0x000000000000a602       0x66 e:/program/mounriver/mounriver_studio/toolchain/risc-v embedded gcc/bin/../lib/gcc/riscv-none-embed/8.2.0/../../../../riscv-none-embed/lib/rv32ecxw/ilp32e\libg_nano.a(lib_a-findfp.o)
 .text._cleanup_r
                0x000000000000a668        0xa e:/program/mounriver/mounriver_studio/toolchain/risc-v embedded gcc/bin/../lib/gcc/riscv-none-embed/8.2.0/../../../../riscv-none-embed/lib/rv32ecxw/ilp32e\libg_nano.a(lib_a-findfp.o)
                0x000000000000a668                _cleanup_r
 .text.__sfmoreglue
                0x000000000000a672       0x48 e:/program/mounriver/mounriver_studio/toolchain/risc-v embedded gcc/bin/../lib/gcc/riscv-none-embed/8.2.0/../../../../riscv-none-embed/lib/rv32ecxw/ilp32e\libg_nano.a(lib_a-findfp.o)
                0x000000000000a672                __sfmoreglue
 .text.__sinit  0x000000000000a6ba       0x6c e:/program/mounriver/mounriver_studio/toolchain/risc-v embedded gcc/bin/../lib/gcc/riscv-none-embed/8.2.0/../../../../riscv-none-embed/lib/rv32ecxw/ilp32e\libg_nano.a(lib_a-findfp.o)
                0x000000000000a6ba                __sinit
 .text.__sfp    0x000000000000a726       0x9e e:/program/mounriver/mounriver_studio/toolchain/risc-v embedded gcc/bin/../lib/gcc/riscv-none-embed/8.2.0/../../../../riscv-none-embed/lib/rv32ecxw/ilp32e\libg_nano.a(lib_a-findfp.o)
                0x000000000000a726                __sfp
 .text._fwalk_reent
                0x000000000000a7c4       0x5e e:/program/mounriver/mounriver_studio/toolchain/risc-v embedded gcc/bin/../lib/gcc/riscv-none-embed/8.2.0/../../../../riscv-none-embed/lib/rv32ecxw/ilp32e\libg_nano.a(lib_a-fwalk.o)
                0x000000000000a7c4                _fwalk_reent
 .text.__locale_ctype_ptr_l
                0x000000000000a822        0x6 e:/program/mounriver/mounriver_studio/toolchain/risc-v embedded gcc/bin/../lib/gcc/riscv-none-embed/8.2.0/../../../../riscv-none-embed/lib/rv32ecxw/ilp32e\libg_nano.a(lib_a-locale.o)
                0x000000000000a822                __locale_ctype_ptr_l
 .text.__swhatbuf_r
                0x000000000000a828       0x62 e:/program/mounriver/mounriver_studio/toolchain/risc-v embedded gcc/bin/../lib/gcc/riscv-none-embed/8.2.0/../../../../riscv-none-embed/lib/rv32ecxw/ilp32e\libg_nano.a(lib_a-makebuf.o)
                0x000000000000a828                __swhatbuf_r
 .text.__smakebuf_r
                0x000000000000a88a       0x8e e:/program/mounriver/mounriver_studio/toolchain/risc-v embedded gcc/bin/../lib/gcc/riscv-none-embed/8.2.0/../../../../riscv-none-embed/lib/rv32ecxw/ilp32e\libg_nano.a(lib_a-makebuf.o)
                0x000000000000a88a                __smakebuf_r
 .text.malloc   0x000000000000a918        0xa e:/program/mounriver/mounriver_studio/toolchain/risc-v embedded gcc/bin/../lib/gcc/riscv-none-embed/8.2.0/../../../../riscv-none-embed/lib/rv32ecxw/ilp32e\libg_nano.a(lib_a-malloc.o)
                0x000000000000a918                malloc
 .text.__ascii_mbtowc
                0x000000000000a922       0x32 e:/program/mounriver/mounriver_studio/toolchain/risc-v embedded gcc/bin/../lib/gcc/riscv-none-embed/8.2.0/../../../../riscv-none-embed/lib/rv32ecxw/ilp32e\libg_nano.a(lib_a-mbtowc_r.o)
                0x000000000000a922                __ascii_mbtowc
 .text._free_r  0x000000000000a954       0xa8 e:/program/mounriver/mounriver_studio/toolchain/risc-v embedded gcc/bin/../lib/gcc/riscv-none-embed/8.2.0/../../../../riscv-none-embed/lib/rv32ecxw/ilp32e\libg_nano.a(lib_a-nano-freer.o)
                0x000000000000a954                _free_r
 .text._malloc_r
                0x000000000000a9fc       0xe0 e:/program/mounriver/mounriver_studio/toolchain/risc-v embedded gcc/bin/../lib/gcc/riscv-none-embed/8.2.0/../../../../riscv-none-embed/lib/rv32ecxw/ilp32e\libg_nano.a(lib_a-nano-mallocr.o)
                0x000000000000a9fc                _malloc_r
 .text.__ssputs_r
                0x000000000000aadc       0xf0 e:/program/mounriver/mounriver_studio/toolchain/risc-v embedded gcc/bin/../lib/gcc/riscv-none-embed/8.2.0/../../../../riscv-none-embed/lib/rv32ecxw/ilp32e\libg_nano.a(lib_a-nano-svfprintf.o)
                0x000000000000aadc                __ssputs_r
 .text._svfprintf_r
                0x000000000000abcc      0x276 e:/program/mounriver/mounriver_studio/toolchain/risc-v embedded gcc/bin/../lib/gcc/riscv-none-embed/8.2.0/../../../../riscv-none-embed/lib/rv32ecxw/ilp32e\libg_nano.a(lib_a-nano-svfprintf.o)
                0x000000000000abcc                _svfiprintf_r
                0x000000000000abcc                _svfprintf_r
 .text.__sfputc_r
                0x000000000000ae42       0x28 e:/program/mounriver/mounriver_studio/toolchain/risc-v embedded gcc/bin/../lib/gcc/riscv-none-embed/8.2.0/../../../../riscv-none-embed/lib/rv32ecxw/ilp32e\libg_nano.a(lib_a-nano-vfprintf.o)
 .text.__sfputs_r
                0x000000000000ae6a       0x3e e:/program/mounriver/mounriver_studio/toolchain/risc-v embedded gcc/bin/../lib/gcc/riscv-none-embed/8.2.0/../../../../riscv-none-embed/lib/rv32ecxw/ilp32e\libg_nano.a(lib_a-nano-vfprintf.o)
                0x000000000000ae6a                __sfputs_r
 .text._vfprintf_r
                0x000000000000aea8      0x2aa e:/program/mounriver/mounriver_studio/toolchain/risc-v embedded gcc/bin/../lib/gcc/riscv-none-embed/8.2.0/../../../../riscv-none-embed/lib/rv32ecxw/ilp32e\libg_nano.a(lib_a-nano-vfprintf.o)
                0x000000000000aea8                _vfprintf_r
                0x000000000000aea8                _vfiprintf_r
 .text._printf_common
                0x000000000000b152      0x12c e:/program/mounriver/mounriver_studio/toolchain/risc-v embedded gcc/bin/../lib/gcc/riscv-none-embed/8.2.0/../../../../riscv-none-embed/lib/rv32ecxw/ilp32e\libg_nano.a(lib_a-nano-vfprintf_i.o)
                0x000000000000b152                _printf_common
 .text._printf_i
                0x000000000000b27e      0x2ba e:/program/mounriver/mounriver_studio/toolchain/risc-v embedded gcc/bin/../lib/gcc/riscv-none-embed/8.2.0/../../../../riscv-none-embed/lib/rv32ecxw/ilp32e\libg_nano.a(lib_a-nano-vfprintf_i.o)
                0x000000000000b27e                _printf_i
 .text._putc_r  0x000000000000b538       0x84 e:/program/mounriver/mounriver_studio/toolchain/risc-v embedded gcc/bin/../lib/gcc/riscv-none-embed/8.2.0/../../../../riscv-none-embed/lib/rv32ecxw/ilp32e\libg_nano.a(lib_a-putc.o)
                0x000000000000b538                _putc_r
 .text._sbrk_r  0x000000000000b5bc       0x32 e:/program/mounriver/mounriver_studio/toolchain/risc-v embedded gcc/bin/../lib/gcc/riscv-none-embed/8.2.0/../../../../riscv-none-embed/lib/rv32ecxw/ilp32e\libg_nano.a(lib_a-sbrkr.o)
                0x000000000000b5bc                _sbrk_r
 .text.__sread  0x000000000000b5ee       0x2c e:/program/mounriver/mounriver_studio/toolchain/risc-v embedded gcc/bin/../lib/gcc/riscv-none-embed/8.2.0/../../../../riscv-none-embed/lib/rv32ecxw/ilp32e\libg_nano.a(lib_a-stdio.o)
                0x000000000000b5ee                __sread
 .text.__swrite
                0x000000000000b61a       0x48 e:/program/mounriver/mounriver_studio/toolchain/risc-v embedded gcc/bin/../lib/gcc/riscv-none-embed/8.2.0/../../../../riscv-none-embed/lib/rv32ecxw/ilp32e\libg_nano.a(lib_a-stdio.o)
                0x000000000000b61a                __swrite
 .text.__sseek  0x000000000000b662       0x30 e:/program/mounriver/mounriver_studio/toolchain/risc-v embedded gcc/bin/../lib/gcc/riscv-none-embed/8.2.0/../../../../riscv-none-embed/lib/rv32ecxw/ilp32e\libg_nano.a(lib_a-stdio.o)
                0x000000000000b662                __sseek
 .text.__sclose
                0x000000000000b692        0x6 e:/program/mounriver/mounriver_studio/toolchain/risc-v embedded gcc/bin/../lib/gcc/riscv-none-embed/8.2.0/../../../../riscv-none-embed/lib/rv32ecxw/ilp32e\libg_nano.a(lib_a-stdio.o)
                0x000000000000b692                __sclose
 .text.__ascii_wctomb
                0x000000000000b698       0x1e e:/program/mounriver/mounriver_studio/toolchain/risc-v embedded gcc/bin/../lib/gcc/riscv-none-embed/8.2.0/../../../../riscv-none-embed/lib/rv32ecxw/ilp32e\libg_nano.a(lib_a-wctomb_r.o)
                0x000000000000b698                __ascii_wctomb
 .text._write_r
                0x000000000000b6b6       0x36 e:/program/mounriver/mounriver_studio/toolchain/risc-v embedded gcc/bin/../lib/gcc/riscv-none-embed/8.2.0/../../../../riscv-none-embed/lib/rv32ecxw/ilp32e\libg_nano.a(lib_a-writer.o)
                0x000000000000b6b6                _write_r
 .text._close_r
                0x000000000000b6ec       0x30 e:/program/mounriver/mounriver_studio/toolchain/risc-v embedded gcc/bin/../lib/gcc/riscv-none-embed/8.2.0/../../../../riscv-none-embed/lib/rv32ecxw/ilp32e\libg_nano.a(lib_a-closer.o)
                0x000000000000b6ec                _close_r
 .text._fstat_r
                0x000000000000b71c       0x32 e:/program/mounriver/mounriver_studio/toolchain/risc-v embedded gcc/bin/../lib/gcc/riscv-none-embed/8.2.0/../../../../riscv-none-embed/lib/rv32ecxw/ilp32e\libg_nano.a(lib_a-fstatr.o)
                0x000000000000b71c                _fstat_r
 .text._isatty_r
                0x000000000000b74e       0x30 e:/program/mounriver/mounriver_studio/toolchain/risc-v embedded gcc/bin/../lib/gcc/riscv-none-embed/8.2.0/../../../../riscv-none-embed/lib/rv32ecxw/ilp32e\libg_nano.a(lib_a-isattyr.o)
                0x000000000000b74e                _isatty_r
 .text._lseek_r
                0x000000000000b77e       0x34 e:/program/mounriver/mounriver_studio/toolchain/risc-v embedded gcc/bin/../lib/gcc/riscv-none-embed/8.2.0/../../../../riscv-none-embed/lib/rv32ecxw/ilp32e\libg_nano.a(lib_a-lseekr.o)
                0x000000000000b77e                _lseek_r
 .text.memchr   0x000000000000b7b2       0x18 e:/program/mounriver/mounriver_studio/toolchain/risc-v embedded gcc/bin/../lib/gcc/riscv-none-embed/8.2.0/../../../../riscv-none-embed/lib/rv32ecxw/ilp32e\libg_nano.a(lib_a-memchr.o)
                0x000000000000b7b2                memchr
 .text.memmove  0x000000000000b7ca       0x46 e:/program/mounriver/mounriver_studio/toolchain/risc-v embedded gcc/bin/../lib/gcc/riscv-none-embed/8.2.0/../../../../riscv-none-embed/lib/rv32ecxw/ilp32e\libg_nano.a(lib_a-memmove.o)
                0x000000000000b7ca                memmove
 .text.__malloc_lock
                0x000000000000b810        0x2 e:/program/mounriver/mounriver_studio/toolchain/risc-v embedded gcc/bin/../lib/gcc/riscv-none-embed/8.2.0/../../../../riscv-none-embed/lib/rv32ecxw/ilp32e\libg_nano.a(lib_a-mlock.o)
                0x000000000000b810                __malloc_lock
 .text.__malloc_unlock
                0x000000000000b812        0x2 e:/program/mounriver/mounriver_studio/toolchain/risc-v embedded gcc/bin/../lib/gcc/riscv-none-embed/8.2.0/../../../../riscv-none-embed/lib/rv32ecxw/ilp32e\libg_nano.a(lib_a-mlock.o)
                0x000000000000b812                __malloc_unlock
 .text._realloc_r
                0x000000000000b814       0x58 e:/program/mounriver/mounriver_studio/toolchain/risc-v embedded gcc/bin/../lib/gcc/riscv-none-embed/8.2.0/../../../../riscv-none-embed/lib/rv32ecxw/ilp32e\libg_nano.a(lib_a-nano-reallocr.o)
                0x000000000000b814                _realloc_r
 .text._read_r  0x000000000000b86c       0x34 e:/program/mounriver/mounriver_studio/toolchain/risc-v embedded gcc/bin/../lib/gcc/riscv-none-embed/8.2.0/../../../../riscv-none-embed/lib/rv32ecxw/ilp32e\libg_nano.a(lib_a-readr.o)
                0x000000000000b86c                _read_r
 .text._malloc_usable_size_r
                0x000000000000b8a0       0x14 e:/program/mounriver/mounriver_studio/toolchain/risc-v embedded gcc/bin/../lib/gcc/riscv-none-embed/8.2.0/../../../../riscv-none-embed/lib/rv32ecxw/ilp32e\libg_nano.a(lib_a-nano-msizer.o)
                0x000000000000b8a0                _malloc_usable_size_r
 .text._close   0x000000000000b8b4       0x10 e:/program/mounriver/mounriver_studio/toolchain/risc-v embedded gcc/bin/../lib/gcc/riscv-none-embed/8.2.0/../../../../riscv-none-embed/lib/rv32ecxw/ilp32e\libnosys.a(close.o)
                0x000000000000b8b4                _close
 .text._fstat   0x000000000000b8c4       0x10 e:/program/mounriver/mounriver_studio/toolchain/risc-v embedded gcc/bin/../lib/gcc/riscv-none-embed/8.2.0/../../../../riscv-none-embed/lib/rv32ecxw/ilp32e\libnosys.a(fstat.o)
                0x000000000000b8c4                _fstat
 .text._isatty  0x000000000000b8d4       0x10 e:/program/mounriver/mounriver_studio/toolchain/risc-v embedded gcc/bin/../lib/gcc/riscv-none-embed/8.2.0/../../../../riscv-none-embed/lib/rv32ecxw/ilp32e\libnosys.a(isatty.o)
                0x000000000000b8d4                _isatty
 .text._lseek   0x000000000000b8e4       0x10 e:/program/mounriver/mounriver_studio/toolchain/risc-v embedded gcc/bin/../lib/gcc/riscv-none-embed/8.2.0/../../../../riscv-none-embed/lib/rv32ecxw/ilp32e\libnosys.a(lseek.o)
                0x000000000000b8e4                _lseek
 .text._read    0x000000000000b8f4       0x10 e:/program/mounriver/mounriver_studio/toolchain/risc-v embedded gcc/bin/../lib/gcc/riscv-none-embed/8.2.0/../../../../riscv-none-embed/lib/rv32ecxw/ilp32e\libnosys.a(read.o)
                0x000000000000b8f4                _read
 *(.rodata)
 *(.rodata*)
 *fill*         0x000000000000b904        0x0 
 .rodata.WCHNET_CreateCfgSocket.str1.4
                0x000000000000b904       0x39 build/main.o
 *fill*         0x000000000000b93d        0x3 
 .rodata.WCHNET_CreateTcpSocketListen.str1.4
                0x000000000000b940       0x17 build/main.o
 *fill*         0x000000000000b957        0x1 
 .rodata.WCHNET_HandleGlobalInt.str1.4
                0x000000000000b958       0x3e build/main.o
 *fill*         0x000000000000b996        0x2 
 .rodata.WCHNET_HandleSockInt.str1.4
                0x000000000000b998       0x5d build/main.o
 *fill*         0x000000000000b9f5        0x3 
 .rodata.mStopIfError.str1.4
                0x000000000000b9f8        0xe build/main.o
 *fill*         0x000000000000ba06        0x2 
 .rodata.main.str1.4
                0x000000000000ba08       0x6c build/main.o
 .rodata.MemNum
                0x000000000000ba74       0x10 build/eth_driver.o
                0x000000000000ba74                MemNum
 .rodata.MemSize
                0x000000000000ba84       0x10 build/eth_driver.o
                0x000000000000ba84                MemSize
 .rodata.GetURLName.str1.4
                0x000000000000ba94        0x2 build/HTTPS.o
 *fill*         0x000000000000ba96        0x2 
 .rodata.Html_about
                0x000000000000ba98      0xa66 build/HTTPS.o
                0x000000000000ba98                Html_about
 *fill*         0x000000000000c4fe        0x2 
 .rodata.Html_basic
                0x000000000000c500      0x46a build/HTTPS.o
                0x000000000000c500                Html_basic
 *fill*         0x000000000000c96a        0x2 
 .rodata.Html_login
                0x000000000000c96c      0x64c build/HTTPS.o
                0x000000000000c96c                Html_login
 .rodata.Html_logo
                0x000000000000cfb8      0x5e1 build/HTTPS.o
                0x000000000000cfb8                Html_logo
 *fill*         0x000000000000d599        0x3 
 .rodata.Html_main
                0x000000000000d59c      0xc27 build/HTTPS.o
                0x000000000000d59c                Html_main
 *fill*         0x000000000000e1c3        0x1 
 .rodata.Html_png1
                0x000000000000e1c4      0xca3 build/HTTPS.o
                0x000000000000e1c4                Html_png1
 *fill*         0x000000000000ee67        0x1 
 .rodata.Html_png2
                0x000000000000ee68      0x866 build/HTTPS.o
                0x000000000000ee68                Html_png2
 *fill*         0x000000000000f6ce        0x2 
 .rodata.Html_png3
                0x000000000000f6d0      0x99a build/HTTPS.o
                0x000000000000f6d0                Html_png3
 *fill*         0x000000000001006a        0x2 
 .rodata.Html_png4
                0x000000000001006c     0x10ce build/HTTPS.o
                0x000000000001006c                Html_png4
 *fill*         0x000000000001113a        0x2 
 .rodata.Html_port
                0x000000000001113c      0x522 build/HTTPS.o
                0x000000000001113c                Html_port
 *fill*         0x000000000001165e        0x2 
 .rodata.Html_style
                0x0000000000011660      0x6bc build/HTTPS.o
                0x0000000000011660                Html_style
 .rodata.Html_success
                0x0000000000011d1c      0x1cc build/HTTPS.o
                0x0000000000011d1c                Html_success
 .rodata.Html_user
                0x0000000000011ee8      0x35d build/HTTPS.o
                0x0000000000011ee8                Html_user
 *fill*         0x0000000000012245        0x3 
 .rodata.Html_weixin
                0x0000000000012248     0x1240 build/HTTPS.o
                0x0000000000012248                Html_weixin
 .rodata.Init_Para_Tab.str1.4
                0x0000000000013488       0xa3 build/HTTPS.o
 *fill*         0x000000000001352b        0x1 
 .rodata.MakeHttpResponse.str1.4
                0x000000000001352c       0xb9 build/HTTPS.o
 *fill*         0x00000000000135e5        0x3 
 .rodata.ParseHttpRequest.str1.4
                0x00000000000135e8       0x15 build/HTTPS.o
                                         0x19 (size before relaxing)
 *fill*         0x00000000000135fd        0x3 
 .rodata.ParseURLType.str1.4
                0x0000000000013600       0x1d build/HTTPS.o
 *fill*         0x000000000001361d        0x3 
 .rodata.Refresh_Basic.str1.4
                0x0000000000013620       0x24 build/HTTPS.o
 .rodata.Refresh_Login.str1.4
                0x0000000000013644       0x10 build/HTTPS.o
 .rodata.Refresh_Port.str1.4
                0x0000000000013654       0x44 build/HTTPS.o
 .rodata.Web_Server.str1.4
                0x0000000000013698       0x7e build/HTTPS.o
 *fill*         0x0000000000013716        0x2 
 .rodata.HardFault_Handler.str1.4
                0x0000000000013718       0x42 build/ch32v30x_it.o
 *fill*         0x000000000001375a        0x2 
 .rodata.ErrTable
                0x000000000001375c       0x10 NetLib/libwchnet.a(socket.o)
                0x000000000001375c                ErrTable
 .rodata.tcp_close
                0x000000000001376c       0x20 NetLib/libwchnet.a(tcp.o)
 .rodata.tcp_backoff
                0x000000000001378c        0xd NetLib/libwchnet.a(tcp.o)
                0x000000000001378c                tcp_backoff
 *fill*         0x0000000000013799        0x3 
 .rodata.tcp_input
                0x000000000001379c       0x20 NetLib/libwchnet.a(tcp_in.o)
 .rodata.__sf_fake_stderr
                0x00000000000137bc       0x20 e:/program/mounriver/mounriver_studio/toolchain/risc-v embedded gcc/bin/../lib/gcc/riscv-none-embed/8.2.0/../../../../riscv-none-embed/lib/rv32ecxw/ilp32e\libg_nano.a(lib_a-findfp.o)
                0x00000000000137bc                __sf_fake_stderr
 .rodata.__sf_fake_stdin
                0x00000000000137dc       0x20 e:/program/mounriver/mounriver_studio/toolchain/risc-v embedded gcc/bin/../lib/gcc/riscv-none-embed/8.2.0/../../../../riscv-none-embed/lib/rv32ecxw/ilp32e\libg_nano.a(lib_a-findfp.o)
                0x00000000000137dc                __sf_fake_stdin
 .rodata.__sf_fake_stdout
                0x00000000000137fc       0x20 e:/program/mounriver/mounriver_studio/toolchain/risc-v embedded gcc/bin/../lib/gcc/riscv-none-embed/8.2.0/../../../../riscv-none-embed/lib/rv32ecxw/ilp32e\libg_nano.a(lib_a-findfp.o)
                0x00000000000137fc                __sf_fake_stdout
 .rodata._setlocale_r.str1.4
                0x000000000001381c        0xa e:/program/mounriver/mounriver_studio/toolchain/risc-v embedded gcc/bin/../lib/gcc/riscv-none-embed/8.2.0/../../../../riscv-none-embed/lib/rv32ecxw/ilp32e\libg_nano.a(lib_a-locale.o)
                                          0xd (size before relaxing)
 .rodata.str1.4
                0x0000000000013826        0x2 e:/program/mounriver/mounriver_studio/toolchain/risc-v embedded gcc/bin/../lib/gcc/riscv-none-embed/8.2.0/../../../../riscv-none-embed/lib/rv32ecxw/ilp32e\libg_nano.a(lib_a-locale.o)
 *fill*         0x0000000000013826        0x2 
 .rodata._svfprintf_r.str1.4
                0x0000000000013828       0x13 e:/program/mounriver/mounriver_studio/toolchain/risc-v embedded gcc/bin/../lib/gcc/riscv-none-embed/8.2.0/../../../../riscv-none-embed/lib/rv32ecxw/ilp32e\libg_nano.a(lib_a-nano-svfprintf.o)
 .rodata._vfprintf_r.str1.4
                0x000000000001383b       0x13 e:/program/mounriver/mounriver_studio/toolchain/risc-v embedded gcc/bin/../lib/gcc/riscv-none-embed/8.2.0/../../../../riscv-none-embed/lib/rv32ecxw/ilp32e\libg_nano.a(lib_a-nano-vfprintf.o)
 *fill*         0x000000000001383b        0x1 
 .rodata._printf_i.str1.4
                0x000000000001383c       0x28 e:/program/mounriver/mounriver_studio/toolchain/risc-v embedded gcc/bin/../lib/gcc/riscv-none-embed/8.2.0/../../../../riscv-none-embed/lib/rv32ecxw/ilp32e\libg_nano.a(lib_a-nano-vfprintf_i.o)
                                         0x25 (size before relaxing)
 .rodata._ctype_
                0x0000000000013864      0x101 e:/program/mounriver/mounriver_studio/toolchain/risc-v embedded gcc/bin/../lib/gcc/riscv-none-embed/8.2.0/../../../../riscv-none-embed/lib/rv32ecxw/ilp32e\libg_nano.a(lib_a-ctype_.o)
                0x0000000000013864                _ctype_
 *(.gnu.linkonce.t.*)
                0x0000000000013968                . = ALIGN (0x4)
 *fill*         0x0000000000013965        0x3 

.rela.dyn       0x0000000000013968        0x0
 .rela.text.HardFault_Handler
                0x0000000000013968        0x0 build/main.o
 .rela.text._sbrk
                0x0000000000013968        0x0 build/main.o
 .rela.data.curbrk.5533
                0x0000000000013968        0x0 build/main.o
 .rela.init     0x0000000000013968        0x0 build/main.o
 .rela.vector   0x0000000000013968        0x0 build/main.o
 .rela.text.handle_reset
                0x0000000000013968        0x0 build/main.o
 .rela.text.WCHNET_PeriodicHandle
                0x0000000000013968        0x0 build/main.o
 .rela.text.SocketIPRAWReceive
                0x0000000000013968        0x0 build/main.o
 .rela.text.SocketUdpReceive
                0x0000000000013968        0x0 build/main.o
 .rela.text.WCHSocketTCPReceive
                0x0000000000013968        0x0 build/main.o
 .rela.text.WCHTCPServerAccept
                0x0000000000013968        0x0 build/main.o
 .rela.text.WCHSocketInit
                0x0000000000013968        0x0 build/main.o
 .rela.text.WCHNET_Init
                0x0000000000013968        0x0 build/main.o
 .rela.text.WCHNET_ConfigLIB
                0x0000000000013968        0x0 build/main.o
 .rela.text.WCHNET_SocketCreat
                0x0000000000013968        0x0 build/main.o
 .rela.text.WCHNET_SocketRecv
                0x0000000000013968        0x0 build/main.o
 .rela.text.SocketIPRawSend
                0x0000000000013968        0x0 build/main.o
 .rela.text.SocketUdpSend
                0x0000000000013968        0x0 build/main.o
 .rela.text.SocketTcpSend
                0x0000000000013968        0x0 build/main.o
 .rela.text.LwipRemoveTcpPcb
                0x0000000000013968        0x0 build/main.o
 .rela.text.WCHNET_SocketConnect
                0x0000000000013968        0x0 build/main.o
 .rela.text.CloseTcpPCB
                0x0000000000013968        0x0 build/main.o
 .rela.text.update_arp_entry
                0x0000000000013968        0x0 build/main.o
 .rela.text.etharp_arp_input
                0x0000000000013968        0x0 build/main.o
 .rela.text.etharp_request
                0x0000000000013968        0x0 build/main.o
 .rela.text.etharp_query
                0x0000000000013968        0x0 build/main.o
 .rela.text.etharp_output
                0x0000000000013968        0x0 build/main.o
 .rela.text.ethernet_input
                0x0000000000013968        0x0 build/main.o
 .rela.text.low_level_output
                0x0000000000013968        0x0 build/main.o
 .rela.text.ethernetif_input
                0x0000000000013968        0x0 build/main.o
 .rela.text.ip_input
                0x0000000000013968        0x0 build/main.o
 .rela.text.ip_output_if
                0x0000000000013968        0x0 build/main.o
 .rela.text.ip_reass_tmr
                0x0000000000013968        0x0 build/main.o
 .rela.text.ip_reass
                0x0000000000013968        0x0 build/main.o
 .rela.text.ip_frag
                0x0000000000013968        0x0 build/main.o
 .rela.text.dhcp_create_request
                0x0000000000013968        0x0 build/main.o
 .rela.text.dhcp_arp_reply
                0x0000000000013968        0x0 build/main.o
 .rela.text.netif_set_ipaddr
                0x0000000000013968        0x0 build/main.o
 .rela.text.pbuf_free
                0x0000000000013968        0x0 build/main.o
 .rela.text.pbuf_alloc
                0x0000000000013968        0x0 build/main.o
 .rela.text.pbuf_copy
                0x0000000000013968        0x0 build/main.o
 .rela.text.raw_input
                0x0000000000013968        0x0 build/main.o
 .rela.text.raw_sendto
                0x0000000000013968        0x0 build/main.o
 .rela.text.tcp_bind
                0x0000000000013968        0x0 build/main.o
 .rela.text.tcp_slowtmr
                0x0000000000013968        0x0 build/main.o
 .rela.text.tcp_abandon
                0x0000000000013968        0x0 build/main.o
 .rela.text.tcp_alloc
                0x0000000000013968        0x0 build/main.o
 .rela.text.tcp_connect
                0x0000000000013968        0x0 build/main.o
 .rela.text.RemoveTimeWaiTCP
                0x0000000000013968        0x0 build/main.o
 .rela.text.tcp_oos_insert_segment
                0x0000000000013968        0x0 build/main.o
 .rela.text.tcp_receive
                0x0000000000013968        0x0 build/main.o
 .rela.text.tcp_parseopt.isra.0
                0x0000000000013968        0x0 build/main.o
 .rela.text.tcp_input
                0x0000000000013968        0x0 build/main.o
 .rela.text.tcp_output_set_header.isra.0.constprop.1
                0x0000000000013968        0x0 build/main.o
 .rela.text.tcp_enqueue
                0x0000000000013968        0x0 build/main.o
 .rela.text.tcp_send_empty_ack
                0x0000000000013968        0x0 build/main.o
 .rela.text.tcp_output
                0x0000000000013968        0x0 build/main.o
 .rela.text.tcp_rst
                0x0000000000013968        0x0 build/main.o
 .rela.text.tcp_rexmit
                0x0000000000013968        0x0 build/main.o
 .rela.text.tcp_keepalive
                0x0000000000013968        0x0 build/main.o
 .rela.text.tcp_zero_window_probe
                0x0000000000013968        0x0 build/main.o
 .rela.text.udp_input
                0x0000000000013968        0x0 build/main.o
 .rela.text.udp_sendto_if
                0x0000000000013968        0x0 build/main.o
 .rela.text.udp_connect
                0x0000000000013968        0x0 build/main.o
 .rela.text.icmp_send_response.isra.0
                0x0000000000013968        0x0 build/main.o
 .rela.text.icmp_input
                0x0000000000013968        0x0 build/main.o
 .rela.text.inet_chksum_pseudo
                0x0000000000013968        0x0 build/main.o
 .rela.text.inet_chksum_pbuf
                0x0000000000013968        0x0 build/main.o
 .rela.text.__libc_fini_array
                0x0000000000013968        0x0 build/main.o
 .rela.text.__libc_init_array
                0x0000000000013968        0x0 build/main.o
 .rela.text.__register_exitproc
                0x0000000000013968        0x0 build/main.o
 .rela.text.startup.register_fini
                0x0000000000013968        0x0 build/main.o
 .rela.text._svfprintf_r
                0x0000000000013968        0x0 build/main.o
 .rela.text._vfprintf_r
                0x0000000000013968        0x0 build/main.o
 .rela.text._sbrk_r
                0x0000000000013968        0x0 build/main.o
 .rela.text._write_r
                0x0000000000013968        0x0 build/main.o
 .rela.text._close_r
                0x0000000000013968        0x0 build/main.o
 .rela.text._fstat_r
                0x0000000000013968        0x0 build/main.o
 .rela.text._isatty_r
                0x0000000000013968        0x0 build/main.o
 .rela.text._lseek_r
                0x0000000000013968        0x0 build/main.o
 .rela.text._read_r
                0x0000000000013968        0x0 build/main.o
 .rela.text._close
                0x0000000000013968        0x0 build/main.o
 .rela.text._fstat
                0x0000000000013968        0x0 build/main.o
 .rela.text._isatty
                0x0000000000013968        0x0 build/main.o
 .rela.text._lseek
                0x0000000000013968        0x0 build/main.o
 .rela.text._read
                0x0000000000013968        0x0 build/main.o

.fini           0x0000000000013968        0x0
 *(SORT_NONE(.fini))
                0x0000000000013968                . = ALIGN (0x4)
                [!provide]                        PROVIDE (_etext = .)
                [!provide]                        PROVIDE (_eitcm = .)

.preinit_array  0x0000000000013968        0x0
                0x0000000000013968                PROVIDE (__preinit_array_start = .)
 *(.preinit_array)
                0x0000000000013968                PROVIDE (__preinit_array_end = .)

.init_array     0x0000000000013968        0x4
                0x0000000000013968                PROVIDE (__init_array_start = .)
 *(SORT_BY_INIT_PRIORITY(.init_array.*) SORT_BY_INIT_PRIORITY(.ctors.*))
 .init_array.00000
                0x0000000000013968        0x4 e:/program/mounriver/mounriver_studio/toolchain/risc-v embedded gcc/bin/../lib/gcc/riscv-none-embed/8.2.0/../../../../riscv-none-embed/lib/rv32ecxw/ilp32e\libg_nano.a(lib_a-__call_atexit.o)
 *(.init_array EXCLUDE_FILE(*crtend?.o *crtend.o *crtbegin?.o *crtbegin.o) .ctors)
                0x000000000001396c                PROVIDE (__init_array_end = .)

.fini_array     0x000000000001396c        0x0
                0x000000000001396c                PROVIDE (__fini_array_start = .)
 *(SORT_BY_INIT_PRIORITY(.fini_array.*) SORT_BY_INIT_PRIORITY(.dtors.*))
 *(.fini_array EXCLUDE_FILE(*crtend?.o *crtend.o *crtbegin?.o *crtbegin.o) .dtors)
                0x000000000001396c                PROVIDE (__fini_array_end = .)

.ctors
 *crtbegin.o(.ctors)
 *crtbegin?.o(.ctors)
 *(EXCLUDE_FILE(*crtend?.o *crtend.o) .ctors)
 *(SORT_BY_NAME(.ctors.*))
 *(.ctors)

.dtors
 *crtbegin.o(.dtors)
 *crtbegin?.o(.dtors)
 *(EXCLUDE_FILE(*crtend?.o *crtend.o) .dtors)
 *(SORT_BY_NAME(.dtors.*))
 *(.dtors)

.dalign         0x0000000020000000        0x0 load address 0x000000000001396c
                0x0000000020000000                . = ALIGN (0x4)
                0x0000000020000000                PROVIDE (_data_vma = .)

.dlalign        0x000000000001396c        0x0
                0x000000000001396c                . = ALIGN (0x4)
                0x000000000001396c                PROVIDE (_data_lma = .)

.data           0x0000000020000000      0x2c0 load address 0x000000000001396c
 *(.gnu.linkonce.r.*)
 *(.data .data.*)
 .data.phyPN    0x0000000020000000        0x1 build/eth_driver.o
                0x0000000020000000                phyPN
 *fill*         0x0000000020000001        0x3 
 .data.Basic_CfgBuf
                0x0000000020000004        0x4 build/HTTPS.o
                0x0000000020000004                Basic_CfgBuf
 .data.Basic_Default
                0x0000000020000008       0x28 build/HTTPS.o
                0x0000000020000008                Basic_Default
 .data.Login_CfgBuf
                0x0000000020000030        0x4 build/HTTPS.o
                0x0000000020000030                Login_CfgBuf
 .data.Login_Default
                0x0000000020000034       0x28 build/HTTPS.o
                0x0000000020000034                Login_Default
 .data.Port_CfgBuf
                0x000000002000005c        0x4 build/HTTPS.o
                0x000000002000005c                Port_CfgBuf
 .data.Port_Default
                0x0000000020000060       0x28 build/HTTPS.o
                0x0000000020000060                Port_Default
 .data.AHBPrescTable
                0x0000000020000088       0x10 build/system_ch32v30x.o
                0x0000000020000088                AHBPrescTable
 .data.SystemCoreClock
                0x0000000020000098        0x4 build/system_ch32v30x.o
                0x0000000020000098                SystemCoreClock
 .data.curbrk.5533
                0x000000002000009c        0x4 build/debug.o
 .data.ADCPrescTable
                0x00000000200000a0        0x4 build/ch32v30x_rcc.o
 .data.APBAHBPrescTable
                0x00000000200000a4       0x10 build/ch32v30x_rcc.o
 .data.impure_data
                0x00000000200000b4       0x60 e:/program/mounriver/mounriver_studio/toolchain/risc-v embedded gcc/bin/../lib/gcc/riscv-none-embed/8.2.0/../../../../riscv-none-embed/lib/rv32ecxw/ilp32e\libg_nano.a(lib_a-impure.o)
 .data.__global_locale
                0x0000000020000114      0x16c e:/program/mounriver/mounriver_studio/toolchain/risc-v embedded gcc/bin/../lib/gcc/riscv-none-embed/8.2.0/../../../../riscv-none-embed/lib/rv32ecxw/ilp32e\libg_nano.a(lib_a-locale.o)
                0x0000000020000114                __global_locale
 *(.gnu.linkonce.d.*)
                0x0000000020000280                . = ALIGN (0x8)
                0x0000000020000a80                PROVIDE (__global_pointer$ = (. + 0x800))
 *(.sdata .sdata.*)
 .sdata.arp_table
                0x0000000020000280        0x4 NetLib/libwchnet.a(etharp.o)
                0x0000000020000280                arp_table
 .sdata.xid.3253
                0x0000000020000284        0x4 NetLib/libwchnet.a(dhcp.o)
 .sdata.memp_num
                0x0000000020000288        0x4 NetLib/libwchnet.a(memp.o)
                0x0000000020000288                memp_num
 .sdata.memp_sizes
                0x000000002000028c        0x4 NetLib/libwchnet.a(memp.o)
                0x000000002000028c                memp_sizes
 .sdata.iss.3173
                0x0000000020000290        0x4 NetLib/libwchnet.a(tcp.o)
 .sdata.port.3015
                0x0000000020000294        0x2 NetLib/libwchnet.a(tcp.o)
 *fill*         0x0000000020000296        0x2 
 .sdata._impure_ptr
                0x0000000020000298        0x4 e:/program/mounriver/mounriver_studio/toolchain/risc-v embedded gcc/bin/../lib/gcc/riscv-none-embed/8.2.0/../../../../riscv-none-embed/lib/rv32ecxw/ilp32e\libg_nano.a(lib_a-impure.o)
                0x0000000020000298                _impure_ptr
 *(.sdata2.*)
 .sdata2.ethbroadcast
                0x000000002000029c        0x6 NetLib/libwchnet.a(etharp.o)
                0x000000002000029c                ethbroadcast
 *fill*         0x00000000200002a2        0x2 
 .sdata2.ethzero
                0x00000000200002a4        0x6 NetLib/libwchnet.a(etharp.o)
                0x00000000200002a4                ethzero
 *fill*         0x00000000200002aa        0x2 
 .sdata2.ip_addr_any
                0x00000000200002ac        0x4 NetLib/libwchnet.a(ip_addr.o)
                0x00000000200002ac                ip_addr_any
 .sdata2.ip_addr_broadcast
                0x00000000200002b0        0x4 NetLib/libwchnet.a(ip_addr.o)
                0x00000000200002b0                ip_addr_broadcast
 .sdata2.tcp_persist_backoff
                0x00000000200002b4        0x7 NetLib/libwchnet.a(tcp.o)
                0x00000000200002b4                tcp_persist_backoff
 *fill*         0x00000000200002bb        0x1 
 .sdata2._global_impure_ptr
                0x00000000200002bc        0x4 e:/program/mounriver/mounriver_studio/toolchain/risc-v embedded gcc/bin/../lib/gcc/riscv-none-embed/8.2.0/../../../../riscv-none-embed/lib/rv32ecxw/ilp32e\libg_nano.a(lib_a-impure.o)
                0x00000000200002bc                _global_impure_ptr
 *(.gnu.linkonce.s.*)
                0x00000000200002c0                . = ALIGN (0x8)
 *(.srodata.cst16)
 *(.srodata.cst8)
 *(.srodata.cst4)
 *(.srodata.cst2)
 *(.srodata .srodata.*)
                0x00000000200002c0                . = ALIGN (0x4)
                0x00000000200002c0                PROVIDE (_edata = .)

.bss            0x00000000200002c0     0xd948 load address 0x0000000000013c2c
                0x00000000200002c0                . = ALIGN (0x4)
                0x00000000200002c0                PROVIDE (_sbss = .)
 *(.sbss*)
 .sbss.ARPTimer
                0x00000000200002c0        0x4 NetLib/libwchnet.a(eth_api.o)
                0x00000000200002c0                ARPTimer
 .sbss.ArpCheckTime
                0x00000000200002c4        0x4 NetLib/libwchnet.a(eth_api.o)
                0x00000000200002c4                ArpCheckTime
 .sbss.DHCPcoarseTimer
                0x00000000200002c8        0x4 NetLib/libwchnet.a(eth_api.o)
                0x00000000200002c8                DHCPcoarseTimer
 .sbss.DHCPfineTimer
                0x00000000200002cc        0x4 NetLib/libwchnet.a(eth_api.o)
                0x00000000200002cc                DHCPfineTimer
 .sbss.DNSTimer
                0x00000000200002d0        0x4 NetLib/libwchnet.a(eth_api.o)
                0x00000000200002d0                DNSTimer
 .sbss.IPFragTimer
                0x00000000200002d4        0x4 NetLib/libwchnet.a(eth_api.o)
                0x00000000200002d4                IPFragTimer
 .sbss.TCPTimer
                0x00000000200002d8        0x4 NetLib/libwchnet.a(eth_api.o)
                0x00000000200002d8                TCPTimer
 .sbss.TxTimer  0x00000000200002dc        0x4 NetLib/libwchnet.a(eth_api.o)
                0x00000000200002dc                TxTimer
 .sbss.phydatatime
                0x00000000200002e0        0x4 NetLib/libwchnet.a(eth_api.o)
                0x00000000200002e0                phydatatime
 .sbss.SockNumber
                0x00000000200002e4        0x1 NetLib/libwchnet.a(socket.o)
                0x00000000200002e4                SockNumber
 .sbss.phydata  0x00000000200002e5        0x1 NetLib/libwchnet.a(socket.o)
                0x00000000200002e5                phydata
 *fill*         0x00000000200002e6        0x2 
 .sbss.tcpSendDataTime
                0x00000000200002e8        0x4 NetLib/libwchnet.a(socket.o)
                0x00000000200002e8                tcpSendDataTime
 .sbss.etharp_cached_entry
                0x00000000200002ec        0x1 NetLib/libwchnet.a(etharp.o)
 *fill*         0x00000000200002ed        0x3 
 .sbss.frame    0x00000000200002f0        0x8 NetLib/libwchnet.a(ethernetif.o)
                0x00000000200002f0                frame
 .sbss.ip_id.2933
                0x00000000200002f8        0x2 NetLib/libwchnet.a(ip.o)
 .sbss.ip_reass_pbufcount
                0x00000000200002fa        0x2 NetLib/libwchnet.a(ip_frag.o)
 .sbss.reassdatagrams
                0x00000000200002fc        0x4 NetLib/libwchnet.a(ip_frag.o)
 .sbss.lfree    0x0000000020000300        0x4 NetLib/libwchnet.a(mem.o)
 .sbss.ram      0x0000000020000304        0x4 NetLib/libwchnet.a(mem.o)
 .sbss.ram_end  0x0000000020000308        0x4 NetLib/libwchnet.a(mem.o)
 .sbss.netif_default
                0x000000002000030c        0x4 NetLib/libwchnet.a(netif.o)
                0x000000002000030c                netif_default
 .sbss.netif_list
                0x0000000020000310        0x4 NetLib/libwchnet.a(netif.o)
                0x0000000020000310                netif_list
 .sbss.netifnum.2468
                0x0000000020000314        0x1 NetLib/libwchnet.a(netif.o)
 *fill*         0x0000000020000315        0x3 
 .sbss.raw_pcbs
                0x0000000020000318        0x4 NetLib/libwchnet.a(raw.o)
 .sbss.tcp_active_pcbs
                0x000000002000031c        0x4 NetLib/libwchnet.a(tcp.o)
                0x000000002000031c                tcp_active_pcbs
 .sbss.tcp_bound_pcbs
                0x0000000020000320        0x4 NetLib/libwchnet.a(tcp.o)
                0x0000000020000320                tcp_bound_pcbs
 .sbss.tcp_listen_pcbs
                0x0000000020000324        0x4 NetLib/libwchnet.a(tcp.o)
                0x0000000020000324                tcp_listen_pcbs
 .sbss.tcp_ticks
                0x0000000020000328        0x4 NetLib/libwchnet.a(tcp.o)
                0x0000000020000328                tcp_ticks
 .sbss.tcp_timer
                0x000000002000032c        0x1 NetLib/libwchnet.a(tcp.o)
 *fill*         0x000000002000032d        0x3 
 .sbss.tcp_tmp_pcb
                0x0000000020000330        0x4 NetLib/libwchnet.a(tcp.o)
                0x0000000020000330                tcp_tmp_pcb
 .sbss.tcp_tw_pcbs
                0x0000000020000334        0x4 NetLib/libwchnet.a(tcp.o)
                0x0000000020000334                tcp_tw_pcbs
 .sbss.ackno    0x0000000020000338        0x4 NetLib/libwchnet.a(tcp_in.o)
 .sbss.flags    0x000000002000033c        0x1 NetLib/libwchnet.a(tcp_in.o)
 *fill*         0x000000002000033d        0x3 
 .sbss.iphdr    0x0000000020000340        0x4 NetLib/libwchnet.a(tcp_in.o)
 .sbss.recv_data
                0x0000000020000344        0x4 NetLib/libwchnet.a(tcp_in.o)
 .sbss.recv_flags
                0x0000000020000348        0x1 NetLib/libwchnet.a(tcp_in.o)
 *fill*         0x0000000020000349        0x3 
 .sbss.seqno    0x000000002000034c        0x4 NetLib/libwchnet.a(tcp_in.o)
 .sbss.tcp_input_pcb
                0x0000000020000350        0x4 NetLib/libwchnet.a(tcp_in.o)
                0x0000000020000350                tcp_input_pcb
 .sbss.tcphdr   0x0000000020000354        0x4 NetLib/libwchnet.a(tcp_in.o)
 .sbss.tcplen   0x0000000020000358        0x2 NetLib/libwchnet.a(tcp_in.o)
 *fill*         0x000000002000035a        0x2 
 .sbss.udp_pcbs
                0x000000002000035c        0x4 NetLib/libwchnet.a(udp.o)
                0x000000002000035c                udp_pcbs
 .sbss._global_atexit
                0x0000000020000360        0x4 e:/program/mounriver/mounriver_studio/toolchain/risc-v embedded gcc/bin/../lib/gcc/riscv-none-embed/8.2.0/../../../../riscv-none-embed/lib/rv32ecxw/ilp32e\libg_nano.a(lib_a-__call_atexit.o)
                0x0000000020000360                _global_atexit
 .sbss.__malloc_free_list
                0x0000000020000364        0x4 e:/program/mounriver/mounriver_studio/toolchain/risc-v embedded gcc/bin/../lib/gcc/riscv-none-embed/8.2.0/../../../../riscv-none-embed/lib/rv32ecxw/ilp32e\libg_nano.a(lib_a-nano-mallocr.o)
                0x0000000020000364                __malloc_free_list
 .sbss.__malloc_sbrk_start
                0x0000000020000368        0x4 e:/program/mounriver/mounriver_studio/toolchain/risc-v embedded gcc/bin/../lib/gcc/riscv-none-embed/8.2.0/../../../../riscv-none-embed/lib/rv32ecxw/ilp32e\libg_nano.a(lib_a-nano-mallocr.o)
                0x0000000020000368                __malloc_sbrk_start
 *(.gnu.linkonce.sb.*)
 *(.bss*)
 .bss.DESPORT   0x000000002000036c        0x2 build/main.o
                0x000000002000036c                DESPORT
 .bss.DealDataFlag
                0x000000002000036e        0x1 build/main.o
                0x000000002000036e                DealDataFlag
 *fill*         0x000000002000036f        0x1 
 .bss.GWIPAddr  0x0000000020000370        0x4 build/main.o
                0x0000000020000370                GWIPAddr
 .bss.IPAddr    0x0000000020000374        0x4 build/main.o
                0x0000000020000374                IPAddr
 .bss.IPMask    0x0000000020000378        0x4 build/main.o
                0x0000000020000378                IPMask
 .bss.MACAddr   0x000000002000037c        0x6 build/main.o
                0x000000002000037c                MACAddr
 *fill*         0x0000000020000382        0x2 
 .bss.RecvBuffer
                0x0000000020000384      0x640 build/main.o
                0x0000000020000384                RecvBuffer
 .bss.SRCPORT   0x00000000200009c4        0x2 build/main.o
                0x00000000200009c4                SRCPORT
 .bss.SocketId  0x00000000200009c6        0x1 build/main.o
                0x00000000200009c6                SocketId
 .bss.SocketIdForListen
                0x00000000200009c7        0x1 build/main.o
                0x00000000200009c7                SocketIdForListen
 .bss.SocketRecvBuf
                0x00000000200009c8     0x2bc0 build/main.o
                0x00000000200009c8                SocketRecvBuf
 .bss.ChipVerNum
                0x0000000020003588        0x1 build/eth_driver.o
                0x0000000020003588                ChipVerNum
 *fill*         0x0000000020003589        0x3 
 .bss.DMARxDscrTab
                0x000000002000358c       0x40 build/eth_driver.o
                0x000000002000358c                DMARxDscrTab
 .bss.DMATxDscrTab
                0x00000000200035cc       0x20 build/eth_driver.o
                0x00000000200035cc                DMATxDscrTab
 .bss.LocalTime
                0x00000000200035ec        0x4 build/eth_driver.o
                0x00000000200035ec                LocalTime
 .bss.MACRxBuf  0x00000000200035f0     0x1800 build/eth_driver.o
                0x00000000200035f0                MACRxBuf
 .bss.MACTxBuf  0x0000000020004df0      0xc00 build/eth_driver.o
                0x0000000020004df0                MACTxBuf
 .bss.Mem_ArpTable
                0x00000000200059f0      0x4b0 build/eth_driver.o
                0x00000000200059f0                Mem_ArpTable
 .bss.Mem_Heap_Memory
                0x0000000020005ea0     0x284c build/eth_driver.o
                0x0000000020005ea0                Mem_Heap_Memory
 .bss.Memp_Memory
                0x00000000200086ec     0x2ea7 build/eth_driver.o
                0x00000000200086ec                Memp_Memory
 *fill*         0x000000002000b593        0x1 
 .bss.SocketInf
                0x000000002000b594      0x1a4 build/eth_driver.o
                0x000000002000b594                SocketInf
 .bss.gPHYAddress
                0x000000002000b738        0x2 build/eth_driver.o
                0x000000002000b738                gPHYAddress
 *fill*         0x000000002000b73a        0x2 
 .bss.pDMARxSet
                0x000000002000b73c        0x4 build/eth_driver.o
                0x000000002000b73c                pDMARxSet
 .bss.pDMATxSet
                0x000000002000b740        0x4 build/eth_driver.o
                0x000000002000b740                pDMATxSet
 .bss.phyLinkCnt
                0x000000002000b744        0x1 build/eth_driver.o
                0x000000002000b744                phyLinkCnt
 .bss.phyLinkStatus
                0x000000002000b745        0x1 build/eth_driver.o
                0x000000002000b745                phyLinkStatus
 *fill*         0x000000002000b746        0x2 
 .bss.phyLinkTime
                0x000000002000b748        0x4 build/eth_driver.o
                0x000000002000b748                phyLinkTime
 .bss.phyRetryCnt
                0x000000002000b74c        0x1 build/eth_driver.o
                0x000000002000b74c                phyRetryCnt
 .bss.phyStatus
                0x000000002000b74d        0x1 build/eth_driver.o
                0x000000002000b74d                phyStatus
 .bss.phySucCnt
                0x000000002000b74e        0x1 build/eth_driver.o
                0x000000002000b74e                phySucCnt
 *fill*         0x000000002000b74f        0x1 
 .bss.HtmlBuffer
                0x000000002000b750     0x2000 build/HTTPS.o
                0x000000002000b750                HtmlBuffer
 .bss.Para_Basic
                0x000000002000d750       0x60 build/HTTPS.o
                0x000000002000d750                Para_Basic
 .bss.Para_Login
                0x000000002000d7b0       0x30 build/HTTPS.o
                0x000000002000d7b0                Para_Login
 .bss.Para_Port
                0x000000002000d7e0       0x60 build/HTTPS.o
                0x000000002000d7e0                Para_Port
 .bss.basicbuf  0x000000002000d840       0x28 build/HTTPS.o
                0x000000002000d840                basicbuf
 .bss.http_request
                0x000000002000d868        0x4 build/HTTPS.o
                0x000000002000d868                http_request
 .bss.httpweb   0x000000002000d86c       0xc8 build/HTTPS.o
                0x000000002000d86c                httpweb
 .bss.loginbuf  0x000000002000d934       0x28 build/HTTPS.o
                0x000000002000d934                loginbuf
 .bss.name      0x000000002000d95c        0x4 build/HTTPS.o
                0x000000002000d95c                name
 .bss.portbuf   0x000000002000d960       0x28 build/HTTPS.o
                0x000000002000d960                portbuf
 .bss.socket    0x000000002000d988        0x1 build/HTTPS.o
                0x000000002000d988                socket
 *fill*         0x000000002000d989        0x3 
 .bss.tempURL   0x000000002000d98c       0x80 build/HTTPS.o
                0x000000002000d98c                tempURL
 .bss.p_ms      0x000000002000da0c        0x2 build/debug.o
 .bss.p_us      0x000000002000da0e        0x1 build/debug.o
 *fill*         0x000000002000da0f        0x1 
 .bss.DMARxDescToGet
                0x000000002000da10        0x4 build/ch32v30x_eth.o
                0x000000002000da10                DMARxDescToGet
 .bss.DMATxDescToSet
                0x000000002000da14        0x4 build/ch32v30x_eth.o
                0x000000002000da14                DMATxDescToSet
 .bss.SelARP    0x000000002000da18        0xc NetLib/libwchnet.a(ipcheck.o)
                0x000000002000da18                SelARP
 .bss.DHCPCtrl  0x000000002000da24       0x18 NetLib/libwchnet.a(net_dhcp.o)
                0x000000002000da24                DHCPCtrl
 .bss.dhcp_host_name
                0x000000002000da3c       0x40 NetLib/libwchnet.a(net_dhcp.o)
                0x000000002000da3c                dhcp_host_name
 .bss.DNSInf    0x000000002000da7c       0x14 NetLib/libwchnet.a(net_dns.o)
                0x000000002000da7c                DNSInf
 .bss.KeepLiveCfg
                0x000000002000da90        0xc NetLib/libwchnet.a(socket.o)
                0x000000002000da90                KeepLiveCfg
 .bss.NetInf    0x000000002000da9c       0x44 NetLib/libwchnet.a(socket.o)
                0x000000002000da9c                NetInf
 .bss.WCHCfg    0x000000002000dae0       0x2c NetLib/libwchnet.a(socket.o)
                0x000000002000dae0                WCHCfg
 .bss.WCHNetIf  0x000000002000db0c       0x38 NetLib/libwchnet.a(ethernetif.o)
                0x000000002000db0c                WCHNetIf
 .bss.memp_tab  0x000000002000db44       0x20 NetLib/libwchnet.a(memp.o)
 .bss.inseg     0x000000002000db64       0x14 NetLib/libwchnet.a(tcp_in.o)
 .bss._global_atexit0
                0x000000002000db78       0x8c e:/program/mounriver/mounriver_studio/toolchain/risc-v embedded gcc/bin/../lib/gcc/riscv-none-embed/8.2.0/../../../../riscv-none-embed/lib/rv32ecxw/ilp32e\libg_nano.a(lib_a-__atexit.o)
 *(.gnu.linkonce.b.*)
 *(COMMON*)
 COMMON         0x000000002000dc04        0x4 e:/program/mounriver/mounriver_studio/toolchain/risc-v embedded gcc/bin/../lib/gcc/riscv-none-embed/8.2.0/../../../../riscv-none-embed/lib/rv32ecxw/ilp32e\libg_nano.a(lib_a-reent.o)
                0x000000002000dc04                errno
                0x000000002000dc08                . = ALIGN (0x4)
                0x000000002000dc08                PROVIDE (_ebss = .)
                0x000000002000dc08                PROVIDE (_end = _ebss)
                [!provide]                        PROVIDE (end = .)

.stack          0x000000002000f800      0x800
                0x000000002000f800                PROVIDE (_heap_end = .)
                0x000000002000f800                . = ALIGN (0x4)
                [!provide]                        PROVIDE (_susrstack = .)
                0x0000000020010000                . = (. + __stack_size)
 *fill*         0x000000002000f800      0x800 
                0x0000000020010000                PROVIDE (_eusrstack = .)
OUTPUT(build/build.elf elf32-littleriscv)

.debug_info     0x0000000000000000    0x14202
 .debug_info    0x0000000000000000     0x2244 build/main.o
 .debug_info    0x0000000000002244     0x258f build/eth_driver.o
 .debug_info    0x00000000000047d3     0x2572 build/HTTPS.o
 .debug_info    0x0000000000006d45      0xefb build/ch32v30x_it.o
 .debug_info    0x0000000000007c40      0xb89 build/system_ch32v30x.o
 .debug_info    0x00000000000087c9      0xf46 build/debug.o
 .debug_info    0x000000000000970f     0x26fe build/ch32v30x_eth.o
 .debug_info    0x000000000000be0d      0xc0d build/ch32v30x_exti.o
 .debug_info    0x000000000000ca1a     0x1378 build/ch32v30x_flash.o
 .debug_info    0x000000000000dd92     0x1093 build/ch32v30x_gpio.o
 .debug_info    0x000000000000ee25     0x1570 build/ch32v30x_rcc.o
 .debug_info    0x0000000000010395     0x2a2b build/ch32v30x_tim.o
 .debug_info    0x0000000000012dc0     0x1420 build/ch32v30x_usart.o
 .debug_info    0x00000000000141e0       0x22 build/startup_ch32v30x_D8C.o

.debug_abbrev   0x0000000000000000     0x2e0c
 .debug_abbrev  0x0000000000000000      0x41d build/main.o
 .debug_abbrev  0x000000000000041d      0x492 build/eth_driver.o
 .debug_abbrev  0x00000000000008af      0x3ab build/HTTPS.o
 .debug_abbrev  0x0000000000000c5a      0x26e build/ch32v30x_it.o
 .debug_abbrev  0x0000000000000ec8      0x2c0 build/system_ch32v30x.o
 .debug_abbrev  0x0000000000001188      0x334 build/debug.o
 .debug_abbrev  0x00000000000014bc      0x47b build/ch32v30x_eth.o
 .debug_abbrev  0x0000000000001937      0x2da build/ch32v30x_exti.o
 .debug_abbrev  0x0000000000001c11      0x43d build/ch32v30x_flash.o
 .debug_abbrev  0x000000000000204e      0x309 build/ch32v30x_gpio.o
 .debug_abbrev  0x0000000000002357      0x36d build/ch32v30x_rcc.o
 .debug_abbrev  0x00000000000026c4      0x408 build/ch32v30x_tim.o
 .debug_abbrev  0x0000000000002acc      0x32e build/ch32v30x_usart.o
 .debug_abbrev  0x0000000000002dfa       0x12 build/startup_ch32v30x_D8C.o

.debug_loc      0x0000000000000000     0x67a3
 .debug_loc     0x0000000000000000      0x20a build/main.o
 .debug_loc     0x000000000000020a      0x52a build/eth_driver.o
 .debug_loc     0x0000000000000734     0x1126 build/HTTPS.o
 .debug_loc     0x000000000000185a       0xe7 build/system_ch32v30x.o
 .debug_loc     0x0000000000001941      0x1ed build/debug.o
 .debug_loc     0x0000000000001b2e      0xfe5 build/ch32v30x_eth.o
 .debug_loc     0x0000000000002b13      0x181 build/ch32v30x_exti.o
 .debug_loc     0x0000000000002c94      0x7f3 build/ch32v30x_flash.o
 .debug_loc     0x0000000000003487      0x6a5 build/ch32v30x_gpio.o
 .debug_loc     0x0000000000003b2c      0xae4 build/ch32v30x_rcc.o
 .debug_loc     0x0000000000004610     0x19ba build/ch32v30x_tim.o
 .debug_loc     0x0000000000005fca      0x7d9 build/ch32v30x_usart.o

.debug_aranges  0x0000000000000000      0xcd8
 .debug_aranges
                0x0000000000000000       0x60 build/main.o
 .debug_aranges
                0x0000000000000060       0x98 build/eth_driver.o
 .debug_aranges
                0x00000000000000f8       0x98 build/HTTPS.o
 .debug_aranges
                0x0000000000000190       0x40 build/ch32v30x_it.o
 .debug_aranges
                0x00000000000001d0       0x28 build/system_ch32v30x.o
 .debug_aranges
                0x00000000000001f8       0x50 build/debug.o
 .debug_aranges
                0x0000000000000248      0x300 build/ch32v30x_eth.o
 .debug_aranges
                0x0000000000000548       0x50 build/ch32v30x_exti.o
 .debug_aranges
                0x0000000000000598       0xf0 build/ch32v30x_flash.o
 .debug_aranges
                0x0000000000000688       0xa8 build/ch32v30x_gpio.o
 .debug_aranges
                0x0000000000000730      0x1a8 build/ch32v30x_rcc.o
 .debug_aranges
                0x00000000000008d8      0x2d0 build/ch32v30x_tim.o
 .debug_aranges
                0x0000000000000ba8      0x100 build/ch32v30x_usart.o
 .debug_aranges
                0x0000000000000ca8       0x30 build/startup_ch32v30x_D8C.o

.debug_ranges   0x0000000000000000      0xd10
 .debug_ranges  0x0000000000000000       0x50 build/main.o
 .debug_ranges  0x0000000000000050       0xb8 build/eth_driver.o
 .debug_ranges  0x0000000000000108       0xa0 build/HTTPS.o
 .debug_ranges  0x00000000000001a8       0x30 build/ch32v30x_it.o
 .debug_ranges  0x00000000000001d8       0x38 build/system_ch32v30x.o
 .debug_ranges  0x0000000000000210       0x40 build/debug.o
 .debug_ranges  0x0000000000000250      0x368 build/ch32v30x_eth.o
 .debug_ranges  0x00000000000005b8       0x40 build/ch32v30x_exti.o
 .debug_ranges  0x00000000000005f8       0xe0 build/ch32v30x_flash.o
 .debug_ranges  0x00000000000006d8       0x98 build/ch32v30x_gpio.o
 .debug_ranges  0x0000000000000770      0x198 build/ch32v30x_rcc.o
 .debug_ranges  0x0000000000000908      0x2f0 build/ch32v30x_tim.o
 .debug_ranges  0x0000000000000bf8       0xf0 build/ch32v30x_usart.o
 .debug_ranges  0x0000000000000ce8       0x28 build/startup_ch32v30x_D8C.o

.debug_line     0x0000000000000000    0x10f22
 .debug_line    0x0000000000000000      0xd5a build/main.o
 .debug_line    0x0000000000000d5a     0x13fa build/eth_driver.o
 .debug_line    0x0000000000002154     0x1e52 build/HTTPS.o
 .debug_line    0x0000000000003fa6      0x3c3 build/ch32v30x_it.o
 .debug_line    0x0000000000004369      0x6d4 build/system_ch32v30x.o
 .debug_line    0x0000000000004a3d      0x6de build/debug.o
 .debug_line    0x000000000000511b     0x3228 build/ch32v30x_eth.o
 .debug_line    0x0000000000008343      0x564 build/ch32v30x_exti.o
 .debug_line    0x00000000000088a7     0x1b6a build/ch32v30x_flash.o
 .debug_line    0x000000000000a411      0xca2 build/ch32v30x_gpio.o
 .debug_line    0x000000000000b0b3     0x1921 build/ch32v30x_rcc.o
 .debug_line    0x000000000000c9d4     0x325e build/ch32v30x_tim.o
 .debug_line    0x000000000000fc32      0xf83 build/ch32v30x_usart.o
 .debug_line    0x0000000000010bb5      0x36d build/startup_ch32v30x_D8C.o

.debug_str      0x0000000000000000     0x4983
 .debug_str     0x0000000000000000     0x1378 build/main.o
                                       0x1471 (size before relaxing)
 .debug_str     0x0000000000001378      0xa4c build/eth_driver.o
                                       0x18de (size before relaxing)
 .debug_str     0x0000000000001dc4      0x333 build/HTTPS.o
                                        0xa93 (size before relaxing)
 .debug_str     0x00000000000020f7       0x9d build/ch32v30x_it.o
                                        0x90b (size before relaxing)
 .debug_str     0x0000000000002194       0xd9 build/system_ch32v30x.o
                                        0x6bd (size before relaxing)
 .debug_str     0x000000000000226d      0x152 build/debug.o
                                        0x905 (size before relaxing)
 .debug_str     0x00000000000023bf      0xb91 build/ch32v30x_eth.o
                                       0x18f7 (size before relaxing)
 .debug_str     0x0000000000002f50      0x1a9 build/ch32v30x_exti.o
                                        0x787 (size before relaxing)
 .debug_str     0x00000000000030f9      0x390 build/ch32v30x_flash.o
                                        0xa6e (size before relaxing)
 .debug_str     0x0000000000003489      0x21b build/ch32v30x_gpio.o
                                        0x96b (size before relaxing)
 .debug_str     0x00000000000036a4      0x54e build/ch32v30x_rcc.o
                                        0xcc4 (size before relaxing)
 .debug_str     0x0000000000003bf2      0xa08 build/ch32v30x_tim.o
                                       0x1275 (size before relaxing)
 .debug_str     0x00000000000045fa      0x356 build/ch32v30x_usart.o
                                        0xb11 (size before relaxing)
 .debug_str     0x0000000000004950       0x33 build/startup_ch32v30x_D8C.o
                                         0x62 (size before relaxing)

.comment        0x0000000000000000       0x33
 .comment       0x0000000000000000       0x33 build/main.o
                                         0x34 (size before relaxing)
 .comment       0x0000000000000033       0x34 build/eth_driver.o
 .comment       0x0000000000000033       0x34 build/HTTPS.o
 .comment       0x0000000000000033       0x34 build/ch32v30x_it.o
 .comment       0x0000000000000033       0x34 build/system_ch32v30x.o
 .comment       0x0000000000000033       0x34 build/debug.o
 .comment       0x0000000000000033       0x34 build/ch32v30x_eth.o
 .comment       0x0000000000000033       0x34 build/ch32v30x_exti.o
 .comment       0x0000000000000033       0x34 build/ch32v30x_flash.o
 .comment       0x0000000000000033       0x34 build/ch32v30x_gpio.o
 .comment       0x0000000000000033       0x34 build/ch32v30x_rcc.o
 .comment       0x0000000000000033       0x34 build/ch32v30x_tim.o
 .comment       0x0000000000000033       0x34 build/ch32v30x_usart.o
 .comment       0x0000000000000033       0x34 NetLib/libwchnet.a(eth_api.o)
 .comment       0x0000000000000033       0x34 NetLib/libwchnet.a(ipcheck.o)
 .comment       0x0000000000000033       0x34 NetLib/libwchnet.a(net_dhcp.o)
 .comment       0x0000000000000033       0x34 NetLib/libwchnet.a(net_dns.o)
 .comment       0x0000000000000033       0x34 NetLib/libwchnet.a(socket.o)
 .comment       0x0000000000000033       0x34 NetLib/libwchnet.a(etharp.o)
 .comment       0x0000000000000033       0x34 NetLib/libwchnet.a(ethernetif.o)
 .comment       0x0000000000000033       0x34 NetLib/libwchnet.a(inet.o)
 .comment       0x0000000000000033       0x34 NetLib/libwchnet.a(ip.o)
 .comment       0x0000000000000033       0x34 NetLib/libwchnet.a(ip_addr.o)
 .comment       0x0000000000000033       0x34 NetLib/libwchnet.a(ip_frag.o)
 .comment       0x0000000000000033       0x34 NetLib/libwchnet.a(dhcp.o)
 .comment       0x0000000000000033       0x34 NetLib/libwchnet.a(init.o)
 .comment       0x0000000000000033       0x34 NetLib/libwchnet.a(mem.o)
 .comment       0x0000000000000033       0x34 NetLib/libwchnet.a(memp.o)
 .comment       0x0000000000000033       0x34 NetLib/libwchnet.a(netif.o)
 .comment       0x0000000000000033       0x34 NetLib/libwchnet.a(pbuf.o)
 .comment       0x0000000000000033       0x34 NetLib/libwchnet.a(raw.o)
 .comment       0x0000000000000033       0x34 NetLib/libwchnet.a(tcp.o)
 .comment       0x0000000000000033       0x34 NetLib/libwchnet.a(tcp_in.o)
 .comment       0x0000000000000033       0x34 NetLib/libwchnet.a(tcp_out.o)
 .comment       0x0000000000000033       0x34 NetLib/libwchnet.a(udp.o)
 .comment       0x0000000000000033       0x34 NetLib/libwchnet.a(icmp.o)
 .comment       0x0000000000000033       0x34 NetLib/libwchnet.a(inet_chksum.o)

.debug_frame    0x0000000000000000     0x2c7c
 .debug_frame   0x0000000000000000      0x140 build/main.o
 .debug_frame   0x0000000000000140      0x1e8 build/eth_driver.o
 .debug_frame   0x0000000000000328      0x250 build/HTTPS.o
 .debug_frame   0x0000000000000578       0x90 build/ch32v30x_it.o
 .debug_frame   0x0000000000000608       0x50 build/system_ch32v30x.o
 .debug_frame   0x0000000000000658       0xe8 build/debug.o
 .debug_frame   0x0000000000000740      0x6fc build/ch32v30x_eth.o
 .debug_frame   0x0000000000000e3c       0x90 build/ch32v30x_exti.o
 .debug_frame   0x0000000000000ecc      0x320 build/ch32v30x_flash.o
 .debug_frame   0x00000000000011ec      0x15c build/ch32v30x_gpio.o
 .debug_frame   0x0000000000001348      0x358 build/ch32v30x_rcc.o
 .debug_frame   0x00000000000016a0      0x614 build/ch32v30x_tim.o
 .debug_frame   0x0000000000001cb4      0x204 build/ch32v30x_usart.o
 .debug_frame   0x0000000000001eb8       0x20 e:/program/mounriver/mounriver_studio/toolchain/risc-v embedded gcc/bin/../lib/gcc/riscv-none-embed/8.2.0/../../../../riscv-none-embed/lib/rv32ecxw/ilp32e\libg_nano.a(lib_a-atexit.o)
 .debug_frame   0x0000000000001ed8       0x30 e:/program/mounriver/mounriver_studio/toolchain/risc-v embedded gcc/bin/../lib/gcc/riscv-none-embed/8.2.0/../../../../riscv-none-embed/lib/rv32ecxw/ilp32e\libg_nano.a(lib_a-atoi.o)
 .debug_frame   0x0000000000001f08       0x38 e:/program/mounriver/mounriver_studio/toolchain/risc-v embedded gcc/bin/../lib/gcc/riscv-none-embed/8.2.0/../../../../riscv-none-embed/lib/rv32ecxw/ilp32e\libg_nano.a(lib_a-fini.o)
 .debug_frame   0x0000000000001f40       0x38 e:/program/mounriver/mounriver_studio/toolchain/risc-v embedded gcc/bin/../lib/gcc/riscv-none-embed/8.2.0/../../../../riscv-none-embed/lib/rv32ecxw/ilp32e\libg_nano.a(lib_a-init.o)
 .debug_frame   0x0000000000001f78       0x38 e:/program/mounriver/mounriver_studio/toolchain/risc-v embedded gcc/bin/../lib/gcc/riscv-none-embed/8.2.0/../../../../riscv-none-embed/lib/rv32ecxw/ilp32e\libg_nano.a(lib_a-memcpy.o)
 .debug_frame   0x0000000000001fb0       0x54 e:/program/mounriver/mounriver_studio/toolchain/risc-v embedded gcc/bin/../lib/gcc/riscv-none-embed/8.2.0/../../../../riscv-none-embed/lib/rv32ecxw/ilp32e\libg_nano.a(lib_a-printf.o)
 .debug_frame   0x0000000000002004       0x50 e:/program/mounriver/mounriver_studio/toolchain/risc-v embedded gcc/bin/../lib/gcc/riscv-none-embed/8.2.0/../../../../riscv-none-embed/lib/rv32ecxw/ilp32e\libg_nano.a(lib_a-putchar.o)
 .debug_frame   0x0000000000002054       0x48 e:/program/mounriver/mounriver_studio/toolchain/risc-v embedded gcc/bin/../lib/gcc/riscv-none-embed/8.2.0/../../../../riscv-none-embed/lib/rv32ecxw/ilp32e\libg_nano.a(lib_a-puts.o)
 .debug_frame   0x000000000000209c       0x48 e:/program/mounriver/mounriver_studio/toolchain/risc-v embedded gcc/bin/../lib/gcc/riscv-none-embed/8.2.0/../../../../riscv-none-embed/lib/rv32ecxw/ilp32e\libg_nano.a(lib_a-sprintf.o)
 .debug_frame   0x00000000000020e4       0x20 e:/program/mounriver/mounriver_studio/toolchain/risc-v embedded gcc/bin/../lib/gcc/riscv-none-embed/8.2.0/../../../../riscv-none-embed/lib/rv32ecxw/ilp32e\libg_nano.a(lib_a-strcpy.o)
 .debug_frame   0x0000000000002104       0x20 e:/program/mounriver/mounriver_studio/toolchain/risc-v embedded gcc/bin/../lib/gcc/riscv-none-embed/8.2.0/../../../../riscv-none-embed/lib/rv32ecxw/ilp32e\libg_nano.a(lib_a-strlen.o)
 .debug_frame   0x0000000000002124       0x20 e:/program/mounriver/mounriver_studio/toolchain/risc-v embedded gcc/bin/../lib/gcc/riscv-none-embed/8.2.0/../../../../riscv-none-embed/lib/rv32ecxw/ilp32e\libg_nano.a(lib_a-strstr.o)
 .debug_frame   0x0000000000002144       0x38 e:/program/mounriver/mounriver_studio/toolchain/risc-v embedded gcc/bin/../lib/gcc/riscv-none-embed/8.2.0/../../../../riscv-none-embed/lib/rv32ecxw/ilp32e\libg_nano.a(lib_a-strtok.o)
 .debug_frame   0x000000000000217c       0x30 e:/program/mounriver/mounriver_studio/toolchain/risc-v embedded gcc/bin/../lib/gcc/riscv-none-embed/8.2.0/../../../../riscv-none-embed/lib/rv32ecxw/ilp32e\libg_nano.a(lib_a-strtok_r.o)
 .debug_frame   0x00000000000021ac       0x68 e:/program/mounriver/mounriver_studio/toolchain/risc-v embedded gcc/bin/../lib/gcc/riscv-none-embed/8.2.0/../../../../riscv-none-embed/lib/rv32ecxw/ilp32e\libg_nano.a(lib_a-strtol.o)
 .debug_frame   0x0000000000002214       0x48 e:/program/mounriver/mounriver_studio/toolchain/risc-v embedded gcc/bin/../lib/gcc/riscv-none-embed/8.2.0/../../../../riscv-none-embed/lib/rv32ecxw/ilp32e\libg_nano.a(lib_a-wbuf.o)
 .debug_frame   0x000000000000225c       0x38 e:/program/mounriver/mounriver_studio/toolchain/risc-v embedded gcc/bin/../lib/gcc/riscv-none-embed/8.2.0/../../../../riscv-none-embed/lib/rv32ecxw/ilp32e\libg_nano.a(lib_a-wsetup.o)
 .debug_frame   0x0000000000002294       0x20 e:/program/mounriver/mounriver_studio/toolchain/risc-v embedded gcc/bin/../lib/gcc/riscv-none-embed/8.2.0/../../../../riscv-none-embed/lib/rv32ecxw/ilp32e\libg_nano.a(lib_a-__atexit.o)
 .debug_frame   0x00000000000022b4       0x48 e:/program/mounriver/mounriver_studio/toolchain/risc-v embedded gcc/bin/../lib/gcc/riscv-none-embed/8.2.0/../../../../riscv-none-embed/lib/rv32ecxw/ilp32e\libg_nano.a(lib_a-__call_atexit.o)
 .debug_frame   0x00000000000022fc       0x74 e:/program/mounriver/mounriver_studio/toolchain/risc-v embedded gcc/bin/../lib/gcc/riscv-none-embed/8.2.0/../../../../riscv-none-embed/lib/rv32ecxw/ilp32e\libg_nano.a(lib_a-fflush.o)
 .debug_frame   0x0000000000002370      0x13c e:/program/mounriver/mounriver_studio/toolchain/risc-v embedded gcc/bin/../lib/gcc/riscv-none-embed/8.2.0/../../../../riscv-none-embed/lib/rv32ecxw/ilp32e\libg_nano.a(lib_a-findfp.o)
 .debug_frame   0x00000000000024ac       0x60 e:/program/mounriver/mounriver_studio/toolchain/risc-v embedded gcc/bin/../lib/gcc/riscv-none-embed/8.2.0/../../../../riscv-none-embed/lib/rv32ecxw/ilp32e\libg_nano.a(lib_a-fwalk.o)
 .debug_frame   0x000000000000250c       0x78 e:/program/mounriver/mounriver_studio/toolchain/risc-v embedded gcc/bin/../lib/gcc/riscv-none-embed/8.2.0/../../../../riscv-none-embed/lib/rv32ecxw/ilp32e\libg_nano.a(lib_a-locale.o)
 .debug_frame   0x0000000000002584       0x5c e:/program/mounriver/mounriver_studio/toolchain/risc-v embedded gcc/bin/../lib/gcc/riscv-none-embed/8.2.0/../../../../riscv-none-embed/lib/rv32ecxw/ilp32e\libg_nano.a(lib_a-makebuf.o)
 .debug_frame   0x00000000000025e0       0x30 e:/program/mounriver/mounriver_studio/toolchain/risc-v embedded gcc/bin/../lib/gcc/riscv-none-embed/8.2.0/../../../../riscv-none-embed/lib/rv32ecxw/ilp32e\libg_nano.a(lib_a-malloc.o)
 .debug_frame   0x0000000000002610       0x38 e:/program/mounriver/mounriver_studio/toolchain/risc-v embedded gcc/bin/../lib/gcc/riscv-none-embed/8.2.0/../../../../riscv-none-embed/lib/rv32ecxw/ilp32e\libg_nano.a(lib_a-mbtowc_r.o)
 .debug_frame   0x0000000000002648       0x40 e:/program/mounriver/mounriver_studio/toolchain/risc-v embedded gcc/bin/../lib/gcc/riscv-none-embed/8.2.0/../../../../riscv-none-embed/lib/rv32ecxw/ilp32e\libg_nano.a(lib_a-nano-freer.o)
 .debug_frame   0x0000000000002688       0x38 e:/program/mounriver/mounriver_studio/toolchain/risc-v embedded gcc/bin/../lib/gcc/riscv-none-embed/8.2.0/../../../../riscv-none-embed/lib/rv32ecxw/ilp32e\libg_nano.a(lib_a-nano-mallocr.o)
 .debug_frame   0x00000000000026c0       0x84 e:/program/mounriver/mounriver_studio/toolchain/risc-v embedded gcc/bin/../lib/gcc/riscv-none-embed/8.2.0/../../../../riscv-none-embed/lib/rv32ecxw/ilp32e\libg_nano.a(lib_a-nano-svfprintf.o)
 .debug_frame   0x0000000000002744       0xa4 e:/program/mounriver/mounriver_studio/toolchain/risc-v embedded gcc/bin/../lib/gcc/riscv-none-embed/8.2.0/../../../../riscv-none-embed/lib/rv32ecxw/ilp32e\libg_nano.a(lib_a-nano-vfprintf.o)
 .debug_frame   0x00000000000027e8       0x60 e:/program/mounriver/mounriver_studio/toolchain/risc-v embedded gcc/bin/../lib/gcc/riscv-none-embed/8.2.0/../../../../riscv-none-embed/lib/rv32ecxw/ilp32e\libg_nano.a(lib_a-nano-vfprintf_i.o)
 .debug_frame   0x0000000000002848       0x4c e:/program/mounriver/mounriver_studio/toolchain/risc-v embedded gcc/bin/../lib/gcc/riscv-none-embed/8.2.0/../../../../riscv-none-embed/lib/rv32ecxw/ilp32e\libg_nano.a(lib_a-putc.o)
 .debug_frame   0x0000000000002894       0x30 e:/program/mounriver/mounriver_studio/toolchain/risc-v embedded gcc/bin/../lib/gcc/riscv-none-embed/8.2.0/../../../../riscv-none-embed/lib/rv32ecxw/ilp32e\libg_nano.a(lib_a-sbrkr.o)
 .debug_frame   0x00000000000028c4       0x9c e:/program/mounriver/mounriver_studio/toolchain/risc-v embedded gcc/bin/../lib/gcc/riscv-none-embed/8.2.0/../../../../riscv-none-embed/lib/rv32ecxw/ilp32e\libg_nano.a(lib_a-stdio.o)
 .debug_frame   0x0000000000002960       0x30 e:/program/mounriver/mounriver_studio/toolchain/risc-v embedded gcc/bin/../lib/gcc/riscv-none-embed/8.2.0/../../../../riscv-none-embed/lib/rv32ecxw/ilp32e\libg_nano.a(lib_a-wctomb_r.o)
 .debug_frame   0x0000000000002990       0x30 e:/program/mounriver/mounriver_studio/toolchain/risc-v embedded gcc/bin/../lib/gcc/riscv-none-embed/8.2.0/../../../../riscv-none-embed/lib/rv32ecxw/ilp32e\libg_nano.a(lib_a-writer.o)
 .debug_frame   0x00000000000029c0       0x30 e:/program/mounriver/mounriver_studio/toolchain/risc-v embedded gcc/bin/../lib/gcc/riscv-none-embed/8.2.0/../../../../riscv-none-embed/lib/rv32ecxw/ilp32e\libg_nano.a(lib_a-closer.o)
 .debug_frame   0x00000000000029f0       0x30 e:/program/mounriver/mounriver_studio/toolchain/risc-v embedded gcc/bin/../lib/gcc/riscv-none-embed/8.2.0/../../../../riscv-none-embed/lib/rv32ecxw/ilp32e\libg_nano.a(lib_a-fstatr.o)
 .debug_frame   0x0000000000002a20       0x30 e:/program/mounriver/mounriver_studio/toolchain/risc-v embedded gcc/bin/../lib/gcc/riscv-none-embed/8.2.0/../../../../riscv-none-embed/lib/rv32ecxw/ilp32e\libg_nano.a(lib_a-isattyr.o)
 .debug_frame   0x0000000000002a50       0x30 e:/program/mounriver/mounriver_studio/toolchain/risc-v embedded gcc/bin/../lib/gcc/riscv-none-embed/8.2.0/../../../../riscv-none-embed/lib/rv32ecxw/ilp32e\libg_nano.a(lib_a-lseekr.o)
 .debug_frame   0x0000000000002a80       0x20 e:/program/mounriver/mounriver_studio/toolchain/risc-v embedded gcc/bin/../lib/gcc/riscv-none-embed/8.2.0/../../../../riscv-none-embed/lib/rv32ecxw/ilp32e\libg_nano.a(lib_a-memchr.o)
 .debug_frame   0x0000000000002aa0       0x20 e:/program/mounriver/mounriver_studio/toolchain/risc-v embedded gcc/bin/../lib/gcc/riscv-none-embed/8.2.0/../../../../riscv-none-embed/lib/rv32ecxw/ilp32e\libg_nano.a(lib_a-memmove.o)
 .debug_frame   0x0000000000002ac0       0x30 e:/program/mounriver/mounriver_studio/toolchain/risc-v embedded gcc/bin/../lib/gcc/riscv-none-embed/8.2.0/../../../../riscv-none-embed/lib/rv32ecxw/ilp32e\libg_nano.a(lib_a-mlock.o)
 .debug_frame   0x0000000000002af0       0x38 e:/program/mounriver/mounriver_studio/toolchain/risc-v embedded gcc/bin/../lib/gcc/riscv-none-embed/8.2.0/../../../../riscv-none-embed/lib/rv32ecxw/ilp32e\libg_nano.a(lib_a-nano-reallocr.o)
 .debug_frame   0x0000000000002b28       0x30 e:/program/mounriver/mounriver_studio/toolchain/risc-v embedded gcc/bin/../lib/gcc/riscv-none-embed/8.2.0/../../../../riscv-none-embed/lib/rv32ecxw/ilp32e\libg_nano.a(lib_a-readr.o)
 .debug_frame   0x0000000000002b58       0x64 e:/program/mounriver/mounriver_studio/toolchain/risc-v embedded gcc/bin/../lib/gcc/riscv-none-embed/8.2.0/../../../../riscv-none-embed/lib/rv32ecxw/ilp32e\libg_nano.a(lib_a-reent.o)
 .debug_frame   0x0000000000002bbc       0x20 e:/program/mounriver/mounriver_studio/toolchain/risc-v embedded gcc/bin/../lib/gcc/riscv-none-embed/8.2.0/../../../../riscv-none-embed/lib/rv32ecxw/ilp32e\libg_nano.a(lib_a-nano-msizer.o)
 .debug_frame   0x0000000000002bdc       0x20 e:/program/mounriver/mounriver_studio/toolchain/risc-v embedded gcc/bin/../lib/gcc/riscv-none-embed/8.2.0/../../../../riscv-none-embed/lib/rv32ecxw/ilp32e\libnosys.a(close.o)
 .debug_frame   0x0000000000002bfc       0x20 e:/program/mounriver/mounriver_studio/toolchain/risc-v embedded gcc/bin/../lib/gcc/riscv-none-embed/8.2.0/../../../../riscv-none-embed/lib/rv32ecxw/ilp32e\libnosys.a(fstat.o)
 .debug_frame   0x0000000000002c1c       0x20 e:/program/mounriver/mounriver_studio/toolchain/risc-v embedded gcc/bin/../lib/gcc/riscv-none-embed/8.2.0/../../../../riscv-none-embed/lib/rv32ecxw/ilp32e\libnosys.a(isatty.o)
 .debug_frame   0x0000000000002c3c       0x20 e:/program/mounriver/mounriver_studio/toolchain/risc-v embedded gcc/bin/../lib/gcc/riscv-none-embed/8.2.0/../../../../riscv-none-embed/lib/rv32ecxw/ilp32e\libnosys.a(lseek.o)
 .debug_frame   0x0000000000002c5c       0x20 e:/program/mounriver/mounriver_studio/toolchain/risc-v embedded gcc/bin/../lib/gcc/riscv-none-embed/8.2.0/../../../../riscv-none-embed/lib/rv32ecxw/ilp32e\libnosys.a(read.o)

.stab           0x0000000000000000       0x84
 .stab          0x0000000000000000       0x24 e:/program/mounriver/mounriver_studio/toolchain/risc-v embedded gcc/bin/../lib/gcc/riscv-none-embed/8.2.0/../../../../riscv-none-embed/lib/rv32ecxw/ilp32e\libnosys.a(close.o)
 .stab          0x0000000000000024       0x18 e:/program/mounriver/mounriver_studio/toolchain/risc-v embedded gcc/bin/../lib/gcc/riscv-none-embed/8.2.0/../../../../riscv-none-embed/lib/rv32ecxw/ilp32e\libnosys.a(fstat.o)
                                         0x24 (size before relaxing)
 .stab          0x000000000000003c       0x18 e:/program/mounriver/mounriver_studio/toolchain/risc-v embedded gcc/bin/../lib/gcc/riscv-none-embed/8.2.0/../../../../riscv-none-embed/lib/rv32ecxw/ilp32e\libnosys.a(isatty.o)
                                         0x24 (size before relaxing)
 .stab          0x0000000000000054       0x18 e:/program/mounriver/mounriver_studio/toolchain/risc-v embedded gcc/bin/../lib/gcc/riscv-none-embed/8.2.0/../../../../riscv-none-embed/lib/rv32ecxw/ilp32e\libnosys.a(lseek.o)
                                         0x24 (size before relaxing)
 .stab          0x000000000000006c       0x18 e:/program/mounriver/mounriver_studio/toolchain/risc-v embedded gcc/bin/../lib/gcc/riscv-none-embed/8.2.0/../../../../riscv-none-embed/lib/rv32ecxw/ilp32e\libnosys.a(read.o)
                                         0x24 (size before relaxing)

.stabstr        0x0000000000000000      0x117
 .stabstr       0x0000000000000000      0x117 e:/program/mounriver/mounriver_studio/toolchain/risc-v embedded gcc/bin/../lib/gcc/riscv-none-embed/8.2.0/../../../../riscv-none-embed/lib/rv32ecxw/ilp32e\libnosys.a(close.o)
