Archive member included to satisfy reference by file (symbol)

e:/program/mounriver/mounriver_studio/toolchain/risc-v embedded gcc/bin/../lib/gcc/riscv-none-embed/8.2.0/rv32ecxw/ilp32e\libgcc.a(save-restore.o)
                              build/main.o (__riscv_save_0)
e:/program/mounriver/mounriver_studio/toolchain/risc-v embedded gcc/bin/../lib/gcc/riscv-none-embed/8.2.0/../../../../riscv-none-embed/lib/rv32ecxw/ilp32e\libg_nano.a(lib_a-atexit.o)
                              build/startup_ch32v30x_D8C.o (atexit)
e:/program/mounriver/mounriver_studio/toolchain/risc-v embedded gcc/bin/../lib/gcc/riscv-none-embed/8.2.0/../../../../riscv-none-embed/lib/rv32ecxw/ilp32e\libg_nano.a(lib_a-fini.o)
                              build/startup_ch32v30x_D8C.o (__libc_fini_array)
e:/program/mounriver/mounriver_studio/toolchain/risc-v embedded gcc/bin/../lib/gcc/riscv-none-embed/8.2.0/../../../../riscv-none-embed/lib/rv32ecxw/ilp32e\libg_nano.a(lib_a-init.o)
                              build/startup_ch32v30x_D8C.o (__libc_init_array)
e:/program/mounriver/mounriver_studio/toolchain/risc-v embedded gcc/bin/../lib/gcc/riscv-none-embed/8.2.0/../../../../riscv-none-embed/lib/rv32ecxw/ilp32e\libg_nano.a(lib_a-__atexit.o)
                              e:/program/mounriver/mounriver_studio/toolchain/risc-v embedded gcc/bin/../lib/gcc/riscv-none-embed/8.2.0/../../../../riscv-none-embed/lib/rv32ecxw/ilp32e\libg_nano.a(lib_a-atexit.o) (__register_exitproc)
e:/program/mounriver/mounriver_studio/toolchain/risc-v embedded gcc/bin/../lib/gcc/riscv-none-embed/8.2.0/../../../../riscv-none-embed/lib/rv32ecxw/ilp32e\libg_nano.a(lib_a-__call_atexit.o)
                              e:/program/mounriver/mounriver_studio/toolchain/risc-v embedded gcc/bin/../lib/gcc/riscv-none-embed/8.2.0/../../../../riscv-none-embed/lib/rv32ecxw/ilp32e\libg_nano.a(lib_a-__atexit.o) (__call_exitprocs)

Discarded input sections

 .text          0x0000000000000000        0x0 build/main.o
 .data          0x0000000000000000        0x0 build/main.o
 .bss           0x0000000000000000        0x0 build/main.o
 .text          0x0000000000000000        0x0 build/startup_ch32v30x_D8C.o
 .data          0x0000000000000000        0x0 build/startup_ch32v30x_D8C.o
 .bss           0x0000000000000000        0x0 build/startup_ch32v30x_D8C.o
 .data          0x0000000000000000        0x0 e:/program/mounriver/mounriver_studio/toolchain/risc-v embedded gcc/bin/../lib/gcc/riscv-none-embed/8.2.0/rv32ecxw/ilp32e\libgcc.a(save-restore.o)
 .bss           0x0000000000000000        0x0 e:/program/mounriver/mounriver_studio/toolchain/risc-v embedded gcc/bin/../lib/gcc/riscv-none-embed/8.2.0/rv32ecxw/ilp32e\libgcc.a(save-restore.o)
 .eh_frame      0x0000000000000000       0x68 e:/program/mounriver/mounriver_studio/toolchain/risc-v embedded gcc/bin/../lib/gcc/riscv-none-embed/8.2.0/rv32ecxw/ilp32e\libgcc.a(save-restore.o)
 .text          0x0000000000000000        0x0 e:/program/mounriver/mounriver_studio/toolchain/risc-v embedded gcc/bin/../lib/gcc/riscv-none-embed/8.2.0/../../../../riscv-none-embed/lib/rv32ecxw/ilp32e\libg_nano.a(lib_a-atexit.o)
 .data          0x0000000000000000        0x0 e:/program/mounriver/mounriver_studio/toolchain/risc-v embedded gcc/bin/../lib/gcc/riscv-none-embed/8.2.0/../../../../riscv-none-embed/lib/rv32ecxw/ilp32e\libg_nano.a(lib_a-atexit.o)
 .bss           0x0000000000000000        0x0 e:/program/mounriver/mounriver_studio/toolchain/risc-v embedded gcc/bin/../lib/gcc/riscv-none-embed/8.2.0/../../../../riscv-none-embed/lib/rv32ecxw/ilp32e\libg_nano.a(lib_a-atexit.o)
 .text          0x0000000000000000        0x0 e:/program/mounriver/mounriver_studio/toolchain/risc-v embedded gcc/bin/../lib/gcc/riscv-none-embed/8.2.0/../../../../riscv-none-embed/lib/rv32ecxw/ilp32e\libg_nano.a(lib_a-fini.o)
 .data          0x0000000000000000        0x0 e:/program/mounriver/mounriver_studio/toolchain/risc-v embedded gcc/bin/../lib/gcc/riscv-none-embed/8.2.0/../../../../riscv-none-embed/lib/rv32ecxw/ilp32e\libg_nano.a(lib_a-fini.o)
 .bss           0x0000000000000000        0x0 e:/program/mounriver/mounriver_studio/toolchain/risc-v embedded gcc/bin/../lib/gcc/riscv-none-embed/8.2.0/../../../../riscv-none-embed/lib/rv32ecxw/ilp32e\libg_nano.a(lib_a-fini.o)
 .text          0x0000000000000000        0x0 e:/program/mounriver/mounriver_studio/toolchain/risc-v embedded gcc/bin/../lib/gcc/riscv-none-embed/8.2.0/../../../../riscv-none-embed/lib/rv32ecxw/ilp32e\libg_nano.a(lib_a-init.o)
 .data          0x0000000000000000        0x0 e:/program/mounriver/mounriver_studio/toolchain/risc-v embedded gcc/bin/../lib/gcc/riscv-none-embed/8.2.0/../../../../riscv-none-embed/lib/rv32ecxw/ilp32e\libg_nano.a(lib_a-init.o)
 .bss           0x0000000000000000        0x0 e:/program/mounriver/mounriver_studio/toolchain/risc-v embedded gcc/bin/../lib/gcc/riscv-none-embed/8.2.0/../../../../riscv-none-embed/lib/rv32ecxw/ilp32e\libg_nano.a(lib_a-init.o)
 .text          0x0000000000000000        0x0 e:/program/mounriver/mounriver_studio/toolchain/risc-v embedded gcc/bin/../lib/gcc/riscv-none-embed/8.2.0/../../../../riscv-none-embed/lib/rv32ecxw/ilp32e\libg_nano.a(lib_a-__atexit.o)
 .data          0x0000000000000000        0x0 e:/program/mounriver/mounriver_studio/toolchain/risc-v embedded gcc/bin/../lib/gcc/riscv-none-embed/8.2.0/../../../../riscv-none-embed/lib/rv32ecxw/ilp32e\libg_nano.a(lib_a-__atexit.o)
 .bss           0x0000000000000000        0x0 e:/program/mounriver/mounriver_studio/toolchain/risc-v embedded gcc/bin/../lib/gcc/riscv-none-embed/8.2.0/../../../../riscv-none-embed/lib/rv32ecxw/ilp32e\libg_nano.a(lib_a-__atexit.o)
 .sdata.__atexit_dummy
                0x0000000000000000        0x4 e:/program/mounriver/mounriver_studio/toolchain/risc-v embedded gcc/bin/../lib/gcc/riscv-none-embed/8.2.0/../../../../riscv-none-embed/lib/rv32ecxw/ilp32e\libg_nano.a(lib_a-__atexit.o)
 .text          0x0000000000000000        0x0 e:/program/mounriver/mounriver_studio/toolchain/risc-v embedded gcc/bin/../lib/gcc/riscv-none-embed/8.2.0/../../../../riscv-none-embed/lib/rv32ecxw/ilp32e\libg_nano.a(lib_a-__call_atexit.o)
 .data          0x0000000000000000        0x0 e:/program/mounriver/mounriver_studio/toolchain/risc-v embedded gcc/bin/../lib/gcc/riscv-none-embed/8.2.0/../../../../riscv-none-embed/lib/rv32ecxw/ilp32e\libg_nano.a(lib_a-__call_atexit.o)
 .bss           0x0000000000000000        0x0 e:/program/mounriver/mounriver_studio/toolchain/risc-v embedded gcc/bin/../lib/gcc/riscv-none-embed/8.2.0/../../../../riscv-none-embed/lib/rv32ecxw/ilp32e\libg_nano.a(lib_a-__call_atexit.o)
 .text.__call_exitprocs
                0x0000000000000000       0xc2 e:/program/mounriver/mounriver_studio/toolchain/risc-v embedded gcc/bin/../lib/gcc/riscv-none-embed/8.2.0/../../../../riscv-none-embed/lib/rv32ecxw/ilp32e\libg_nano.a(lib_a-__call_atexit.o)

Memory Configuration

Name             Origin             Length             Attributes
FLASH            0x0000000000000000 0x0000000000040000 xr
RAM              0x0000000020000000 0x0000000000010000 xrw
*default*        0x0000000000000000 0xffffffffffffffff

Linker script and memory map

LOAD build/main.o
LOAD build/startup_ch32v30x_D8C.o
LOAD e:/program/mounriver/mounriver_studio/toolchain/risc-v embedded gcc/bin/../lib/gcc/riscv-none-embed/8.2.0/rv32ecxw/ilp32e\libgcc.a
LOAD e:/program/mounriver/mounriver_studio/toolchain/risc-v embedded gcc/bin/../lib/gcc/riscv-none-embed/8.2.0/../../../../riscv-none-embed/lib/rv32ecxw/ilp32e\libg_nano.a
LOAD e:/program/mounriver/mounriver_studio/toolchain/risc-v embedded gcc/bin/../lib/gcc/riscv-none-embed/8.2.0/../../../../riscv-none-embed/lib/rv32ecxw/ilp32e\libc_nano.a
LOAD e:/program/mounriver/mounriver_studio/toolchain/risc-v embedded gcc/bin/../lib/gcc/riscv-none-embed/8.2.0/rv32ecxw/ilp32e\libgcc.a
START GROUP
LOAD e:/program/mounriver/mounriver_studio/toolchain/risc-v embedded gcc/bin/../lib/gcc/riscv-none-embed/8.2.0/rv32ecxw/ilp32e\libgcc.a
LOAD e:/program/mounriver/mounriver_studio/toolchain/risc-v embedded gcc/bin/../lib/gcc/riscv-none-embed/8.2.0/../../../../riscv-none-embed/lib/rv32ecxw/ilp32e\libc_nano.a
LOAD e:/program/mounriver/mounriver_studio/toolchain/risc-v embedded gcc/bin/../lib/gcc/riscv-none-embed/8.2.0/../../../../riscv-none-embed/lib/rv32ecxw/ilp32e\libnosys.a
END GROUP
START GROUP
LOAD e:/program/mounriver/mounriver_studio/toolchain/risc-v embedded gcc/bin/../lib/gcc/riscv-none-embed/8.2.0/rv32ecxw/ilp32e\libgcc.a
LOAD e:/program/mounriver/mounriver_studio/toolchain/risc-v embedded gcc/bin/../lib/gcc/riscv-none-embed/8.2.0/../../../../riscv-none-embed/lib/rv32ecxw/ilp32e\libc_nano.a
LOAD e:/program/mounriver/mounriver_studio/toolchain/risc-v embedded gcc/bin/../lib/gcc/riscv-none-embed/8.2.0/../../../../riscv-none-embed/lib/rv32ecxw/ilp32e\libnosys.a
END GROUP
                0x0000000000000800                __stack_size = 0x800
                [!provide]                        PROVIDE (_stack_size = __stack_size)

.init           0x0000000000000000       0x38
                0x0000000000000000                _sinit = .
                0x0000000000000000                . = ALIGN (0x4)
 *(SORT_NONE(.init))
 .init          0x0000000000000000       0x38 build/startup_ch32v30x_D8C.o
                0x0000000000000000                _start
                0x0000000000000038                . = ALIGN (0x4)
                0x0000000000000038                _einit = .

.vector         0x0000000000000038      0x1c8
 *(.vector)
 .vector        0x0000000000000038      0x1a0 build/startup_ch32v30x_D8C.o
                0x0000000000000200                . = ALIGN (0x40)
 *fill*         0x00000000000001d8       0x28 

.text           0x0000000000000200      0x2f4
                0x0000000000000200                . = ALIGN (0x4)
 *(.text)
 .text          0x0000000000000200       0x14 e:/program/mounriver/mounriver_studio/toolchain/risc-v embedded gcc/bin/../lib/gcc/riscv-none-embed/8.2.0/rv32ecxw/ilp32e\libgcc.a(save-restore.o)
                0x0000000000000200                __riscv_save_1
                0x0000000000000200                __riscv_save_2
                0x0000000000000200                __riscv_save_0
                0x000000000000020a                __riscv_restore_0
                0x000000000000020a                __riscv_restore_1
                0x000000000000020a                __riscv_restore_2
 *(.text.*)
 .text.SystemInit
                0x0000000000000214        0x2 build/main.o
                0x0000000000000214                SystemInit
 .text._fini    0x0000000000000216        0x2 build/main.o
                0x0000000000000216                _fini
 .text._init    0x0000000000000218        0x2 build/main.o
                0x0000000000000218                _init
 .text.GPIOA_Pin0_Init
                0x000000000000021a       0x20 build/main.o
                0x000000000000021a                GPIOA_Pin0_Init
 .text.delay    0x000000000000023a       0x10 build/main.o
                0x000000000000023a                delay
 .text.startup.main
                0x000000000000024a       0x1e build/main.o
                0x000000000000024a                main
 .text.vector_handler
                0x0000000000000268       0xbe build/startup_ch32v30x_D8C.o
                0x0000000000000268                NMI_Handler
                0x000000000000026a                HardFault_Handler
                0x000000000000026c                Ecall_M_Mode_Handler
                0x000000000000026e                Ecall_U_Mode_Handler
                0x0000000000000270                Break_Point_Handler
                0x0000000000000272                SysTick_Handler
                0x0000000000000274                SW_Handler
                0x0000000000000276                WWDG_IRQHandler
                0x0000000000000278                PVD_IRQHandler
                0x000000000000027a                TAMPER_IRQHandler
                0x000000000000027c                RTC_IRQHandler
                0x000000000000027e                FLASH_IRQHandler
                0x0000000000000280                RCC_IRQHandler
                0x0000000000000282                EXTI0_IRQHandler
                0x0000000000000284                EXTI1_IRQHandler
                0x0000000000000286                EXTI2_IRQHandler
                0x0000000000000288                EXTI3_IRQHandler
                0x000000000000028a                EXTI4_IRQHandler
                0x000000000000028c                DMA1_Channel1_IRQHandler
                0x000000000000028e                DMA1_Channel2_IRQHandler
                0x0000000000000290                DMA1_Channel3_IRQHandler
                0x0000000000000292                DMA1_Channel4_IRQHandler
                0x0000000000000294                DMA1_Channel5_IRQHandler
                0x0000000000000296                DMA1_Channel6_IRQHandler
                0x0000000000000298                DMA1_Channel7_IRQHandler
                0x000000000000029a                ADC1_2_IRQHandler
                0x000000000000029c                USB_HP_CAN1_TX_IRQHandler
                0x000000000000029e                USB_LP_CAN1_RX0_IRQHandler
                0x00000000000002a0                CAN1_RX1_IRQHandler
                0x00000000000002a2                CAN1_SCE_IRQHandler
                0x00000000000002a4                EXTI9_5_IRQHandler
                0x00000000000002a6                TIM1_BRK_IRQHandler
                0x00000000000002a8                TIM1_UP_IRQHandler
                0x00000000000002aa                TIM1_TRG_COM_IRQHandler
                0x00000000000002ac                TIM1_CC_IRQHandler
                0x00000000000002ae                TIM2_IRQHandler
                0x00000000000002b0                TIM3_IRQHandler
                0x00000000000002b2                TIM4_IRQHandler
                0x00000000000002b4                I2C1_EV_IRQHandler
                0x00000000000002b6                I2C1_ER_IRQHandler
                0x00000000000002b8                I2C2_EV_IRQHandler
                0x00000000000002ba                I2C2_ER_IRQHandler
                0x00000000000002bc                SPI1_IRQHandler
                0x00000000000002be                SPI2_IRQHandler
                0x00000000000002c0                USART1_IRQHandler
                0x00000000000002c2                USART2_IRQHandler
                0x00000000000002c4                USART3_IRQHandler
                0x00000000000002c6                EXTI15_10_IRQHandler
                0x00000000000002c8                RTCAlarm_IRQHandler
                0x00000000000002ca                USBWakeUp_IRQHandler
                0x00000000000002cc                TIM8_BRK_IRQHandler
                0x00000000000002ce                TIM8_UP_IRQHandler
                0x00000000000002d0                TIM8_TRG_COM_IRQHandler
                0x00000000000002d2                TIM8_CC_IRQHandler
                0x00000000000002d4                RNG_IRQHandler
                0x00000000000002d6                FSMC_IRQHandler
                0x00000000000002d8                SDIO_IRQHandler
                0x00000000000002da                TIM5_IRQHandler
                0x00000000000002dc                SPI3_IRQHandler
                0x00000000000002de                UART4_IRQHandler
                0x00000000000002e0                UART5_IRQHandler
                0x00000000000002e2                TIM6_IRQHandler
                0x00000000000002e4                TIM7_IRQHandler
                0x00000000000002e6                DMA2_Channel1_IRQHandler
                0x00000000000002e8                DMA2_Channel2_IRQHandler
                0x00000000000002ea                DMA2_Channel3_IRQHandler
                0x00000000000002ec                DMA2_Channel4_IRQHandler
                0x00000000000002ee                DMA2_Channel5_IRQHandler
                0x00000000000002f0                ETH_IRQHandler
                0x00000000000002f2                ETH_WKUP_IRQHandler
                0x00000000000002f4                CAN2_TX_IRQHandler
                0x00000000000002f6                CAN2_RX0_IRQHandler
                0x00000000000002f8                CAN2_RX1_IRQHandler
                0x00000000000002fa                CAN2_SCE_IRQHandler
                0x00000000000002fc                OTG_FS_IRQHandler
                0x00000000000002fe                USBHSWakeup_IRQHandler
                0x0000000000000300                USBHS_IRQHandler
                0x0000000000000302                DVP_IRQHandler
                0x0000000000000304                UART6_IRQHandler
                0x0000000000000306                UART7_IRQHandler
                0x0000000000000308                UART8_IRQHandler
                0x000000000000030a                TIM9_BRK_IRQHandler
                0x000000000000030c                TIM9_UP_IRQHandler
                0x000000000000030e                TIM9_TRG_COM_IRQHandler
                0x0000000000000310                TIM9_CC_IRQHandler
                0x0000000000000312                TIM10_BRK_IRQHandler
                0x0000000000000314                TIM10_UP_IRQHandler
                0x0000000000000316                TIM10_TRG_COM_IRQHandler
                0x0000000000000318                TIM10_CC_IRQHandler
                0x000000000000031a                DMA2_Channel6_IRQHandler
                0x000000000000031c                DMA2_Channel7_IRQHandler
                0x000000000000031e                DMA2_Channel8_IRQHandler
                0x0000000000000320                DMA2_Channel9_IRQHandler
                0x0000000000000322                DMA2_Channel10_IRQHandler
                0x0000000000000324                DMA2_Channel11_IRQHandler
 .text.handle_reset
                0x0000000000000326       0x9a build/startup_ch32v30x_D8C.o
                0x0000000000000326                handle_reset
 .text.atexit   0x00000000000003c0        0xa e:/program/mounriver/mounriver_studio/toolchain/risc-v embedded gcc/bin/../lib/gcc/riscv-none-embed/8.2.0/../../../../riscv-none-embed/lib/rv32ecxw/ilp32e\libg_nano.a(lib_a-atexit.o)
                0x00000000000003c0                atexit
 .text.__libc_fini_array
                0x00000000000003ca       0x30 e:/program/mounriver/mounriver_studio/toolchain/risc-v embedded gcc/bin/../lib/gcc/riscv-none-embed/8.2.0/../../../../riscv-none-embed/lib/rv32ecxw/ilp32e\libg_nano.a(lib_a-fini.o)
                0x00000000000003ca                __libc_fini_array
 .text.__libc_init_array
                0x00000000000003fa       0x5c e:/program/mounriver/mounriver_studio/toolchain/risc-v embedded gcc/bin/../lib/gcc/riscv-none-embed/8.2.0/../../../../riscv-none-embed/lib/rv32ecxw/ilp32e\libg_nano.a(lib_a-init.o)
                0x00000000000003fa                __libc_init_array
 .text.__register_exitproc
                0x0000000000000456       0x86 e:/program/mounriver/mounriver_studio/toolchain/risc-v embedded gcc/bin/../lib/gcc/riscv-none-embed/8.2.0/../../../../riscv-none-embed/lib/rv32ecxw/ilp32e\libg_nano.a(lib_a-__atexit.o)
                0x0000000000000456                __register_exitproc
 .text.startup.register_fini
                0x00000000000004dc       0x16 e:/program/mounriver/mounriver_studio/toolchain/risc-v embedded gcc/bin/../lib/gcc/riscv-none-embed/8.2.0/../../../../riscv-none-embed/lib/rv32ecxw/ilp32e\libg_nano.a(lib_a-__call_atexit.o)
 *(.rodata)
 *(.rodata*)
 *(.gnu.linkonce.t.*)
                0x00000000000004f4                . = ALIGN (0x4)
 *fill*         0x00000000000004f2        0x2 

.rela.dyn       0x00000000000004f4        0x0
 .rela.init     0x00000000000004f4        0x0 build/main.o
 .rela.vector   0x00000000000004f4        0x0 build/main.o
 .rela.text.handle_reset
                0x00000000000004f4        0x0 build/main.o
 .rela.text.__libc_fini_array
                0x00000000000004f4        0x0 build/main.o
 .rela.text.__libc_init_array
                0x00000000000004f4        0x0 build/main.o
 .rela.text.__register_exitproc
                0x00000000000004f4        0x0 build/main.o
 .rela.text.startup.register_fini
                0x00000000000004f4        0x0 build/main.o

.fini           0x00000000000004f4        0x0
 *(SORT_NONE(.fini))
                0x00000000000004f4                . = ALIGN (0x4)
                [!provide]                        PROVIDE (_etext = .)
                [!provide]                        PROVIDE (_eitcm = .)

.preinit_array  0x00000000000004f4        0x0
                0x00000000000004f4                PROVIDE (__preinit_array_start = .)
 *(.preinit_array)
                0x00000000000004f4                PROVIDE (__preinit_array_end = .)

.init_array     0x00000000000004f4        0x4
                0x00000000000004f4                PROVIDE (__init_array_start = .)
 *(SORT_BY_INIT_PRIORITY(.init_array.*) SORT_BY_INIT_PRIORITY(.ctors.*))
 .init_array.00000
                0x00000000000004f4        0x4 e:/program/mounriver/mounriver_studio/toolchain/risc-v embedded gcc/bin/../lib/gcc/riscv-none-embed/8.2.0/../../../../riscv-none-embed/lib/rv32ecxw/ilp32e\libg_nano.a(lib_a-__call_atexit.o)
 *(.init_array EXCLUDE_FILE(*crtend?.o *crtend.o *crtbegin?.o *crtbegin.o) .ctors)
                0x00000000000004f8                PROVIDE (__init_array_end = .)

.fini_array     0x00000000000004f8        0x0
                0x00000000000004f8                PROVIDE (__fini_array_start = .)
 *(SORT_BY_INIT_PRIORITY(.fini_array.*) SORT_BY_INIT_PRIORITY(.dtors.*))
 *(.fini_array EXCLUDE_FILE(*crtend?.o *crtend.o *crtbegin?.o *crtbegin.o) .dtors)
                0x00000000000004f8                PROVIDE (__fini_array_end = .)

.ctors
 *crtbegin.o(.ctors)
 *crtbegin?.o(.ctors)
 *(EXCLUDE_FILE(*crtend?.o *crtend.o) .ctors)
 *(SORT_BY_NAME(.ctors.*))
 *(.ctors)

.dtors
 *crtbegin.o(.dtors)
 *crtbegin?.o(.dtors)
 *(EXCLUDE_FILE(*crtend?.o *crtend.o) .dtors)
 *(SORT_BY_NAME(.dtors.*))
 *(.dtors)

.dalign         0x0000000020000000        0x0 load address 0x00000000000004f8
                0x0000000020000000                . = ALIGN (0x4)
                0x0000000020000000                PROVIDE (_data_vma = .)

.dlalign        0x00000000000004f8        0x0
                0x00000000000004f8                . = ALIGN (0x4)
                0x00000000000004f8                PROVIDE (_data_lma = .)

.data           0x0000000020000000        0x0 load address 0x00000000000004f8
 *(.gnu.linkonce.r.*)
 *(.data .data.*)
 *(.gnu.linkonce.d.*)
                0x0000000020000000                . = ALIGN (0x8)
                0x0000000020000800                PROVIDE (__global_pointer$ = (. + 0x800))
 *(.sdata .sdata.*)
 *(.sdata2.*)
 *(.gnu.linkonce.s.*)
                0x0000000020000000                . = ALIGN (0x8)
 *(.srodata.cst16)
 *(.srodata.cst8)
 *(.srodata.cst4)
 *(.srodata.cst2)
 *(.srodata .srodata.*)
                0x0000000020000000                . = ALIGN (0x4)
                0x0000000020000000                PROVIDE (_edata = .)

.bss            0x0000000020000000       0x90 load address 0x00000000000004f8
                0x0000000020000000                . = ALIGN (0x4)
                0x0000000020000000                PROVIDE (_sbss = .)
 *(.sbss*)
 .sbss._global_atexit
                0x0000000020000000        0x4 e:/program/mounriver/mounriver_studio/toolchain/risc-v embedded gcc/bin/../lib/gcc/riscv-none-embed/8.2.0/../../../../riscv-none-embed/lib/rv32ecxw/ilp32e\libg_nano.a(lib_a-__call_atexit.o)
                0x0000000020000000                _global_atexit
 *(.gnu.linkonce.sb.*)
 *(.bss*)
 .bss._global_atexit0
                0x0000000020000004       0x8c e:/program/mounriver/mounriver_studio/toolchain/risc-v embedded gcc/bin/../lib/gcc/riscv-none-embed/8.2.0/../../../../riscv-none-embed/lib/rv32ecxw/ilp32e\libg_nano.a(lib_a-__atexit.o)
 *(.gnu.linkonce.b.*)
 *(COMMON*)
                0x0000000020000090                . = ALIGN (0x4)
                0x0000000020000090                PROVIDE (_ebss = .)
                [!provide]                        PROVIDE (_end = _ebss)
                [!provide]                        PROVIDE (end = .)

.stack          0x000000002000f800      0x800
                [!provide]                        PROVIDE (_heap_end = .)
                0x000000002000f800                . = ALIGN (0x4)
                [!provide]                        PROVIDE (_susrstack = .)
                0x0000000020010000                . = (. + __stack_size)
 *fill*         0x000000002000f800      0x800 
                0x0000000020010000                PROVIDE (_eusrstack = .)
OUTPUT(build/build.elf elf32-littleriscv)

.debug_info     0x0000000000000000      0x172
 .debug_info    0x0000000000000000      0x150 build/main.o
 .debug_info    0x0000000000000150       0x22 build/startup_ch32v30x_D8C.o

.debug_abbrev   0x0000000000000000      0x11a
 .debug_abbrev  0x0000000000000000      0x108 build/main.o
 .debug_abbrev  0x0000000000000108       0x12 build/startup_ch32v30x_D8C.o

.debug_loc      0x0000000000000000       0x40
 .debug_loc     0x0000000000000000       0x40 build/main.o

.debug_aranges  0x0000000000000000       0x70
 .debug_aranges
                0x0000000000000000       0x40 build/main.o
 .debug_aranges
                0x0000000000000040       0x30 build/startup_ch32v30x_D8C.o

.debug_ranges   0x0000000000000000       0x70
 .debug_ranges  0x0000000000000000       0x48 build/main.o
 .debug_ranges  0x0000000000000048       0x28 build/startup_ch32v30x_D8C.o

.debug_line     0x0000000000000000      0x5df
 .debug_line    0x0000000000000000      0x272 build/main.o
 .debug_line    0x0000000000000272      0x36d build/startup_ch32v30x_D8C.o

.debug_str      0x0000000000000000      0x1bc
 .debug_str     0x0000000000000000      0x189 build/main.o
                                        0x1cf (size before relaxing)
 .debug_str     0x0000000000000189       0x33 build/startup_ch32v30x_D8C.o
                                         0x61 (size before relaxing)

.comment        0x0000000000000000       0x33
 .comment       0x0000000000000000       0x33 build/main.o
                                         0x34 (size before relaxing)

.debug_frame    0x0000000000000000      0x170
 .debug_frame   0x0000000000000000       0x78 build/main.o
 .debug_frame   0x0000000000000078       0x20 e:/program/mounriver/mounriver_studio/toolchain/risc-v embedded gcc/bin/../lib/gcc/riscv-none-embed/8.2.0/../../../../riscv-none-embed/lib/rv32ecxw/ilp32e\libg_nano.a(lib_a-atexit.o)
 .debug_frame   0x0000000000000098       0x38 e:/program/mounriver/mounriver_studio/toolchain/risc-v embedded gcc/bin/../lib/gcc/riscv-none-embed/8.2.0/../../../../riscv-none-embed/lib/rv32ecxw/ilp32e\libg_nano.a(lib_a-fini.o)
 .debug_frame   0x00000000000000d0       0x38 e:/program/mounriver/mounriver_studio/toolchain/risc-v embedded gcc/bin/../lib/gcc/riscv-none-embed/8.2.0/../../../../riscv-none-embed/lib/rv32ecxw/ilp32e\libg_nano.a(lib_a-init.o)
 .debug_frame   0x0000000000000108       0x20 e:/program/mounriver/mounriver_studio/toolchain/risc-v embedded gcc/bin/../lib/gcc/riscv-none-embed/8.2.0/../../../../riscv-none-embed/lib/rv32ecxw/ilp32e\libg_nano.a(lib_a-__atexit.o)
 .debug_frame   0x0000000000000128       0x48 e:/program/mounriver/mounriver_studio/toolchain/risc-v embedded gcc/bin/../lib/gcc/riscv-none-embed/8.2.0/../../../../riscv-none-embed/lib/rv32ecxw/ilp32e\libg_nano.a(lib_a-__call_atexit.o)
