Archive member included to satisfy reference by file (symbol)

c:/program files/toolchain/xpack-riscv-none-embed-gcc-10.2.0-1.1/bin/../lib/gcc/riscv-none-embed/10.2.0/../../../../riscv-none-embed/lib/rv32imc/ilp32\libg_nano.a(lib_a-init.o)
                              build/startup_MLDR187.o (__libc_init_array)

Discarded input sections

 .group         0x0000000000000000        0xc build/main.o
 .group         0x0000000000000000        0xc build/main.o
 .group         0x0000000000000000        0xc build/main.o
 .group         0x0000000000000000        0xc build/main.o
 .group         0x0000000000000000        0xc build/main.o
 .group         0x0000000000000000        0xc build/main.o
 .group         0x0000000000000000        0xc build/main.o
 .group         0x0000000000000000        0xc build/main.o
 .group         0x0000000000000000        0xc build/main.o
 .group         0x0000000000000000        0xc build/main.o
 .group         0x0000000000000000        0xc build/main.o
 .group         0x0000000000000000        0xc build/main.o
 .group         0x0000000000000000        0xc build/main.o
 .group         0x0000000000000000        0xc build/main.o
 .group         0x0000000000000000        0xc build/main.o
 .group         0x0000000000000000        0xc build/main.o
 .group         0x0000000000000000        0xc build/main.o
 .group         0x0000000000000000        0xc build/main.o
 .group         0x0000000000000000        0xc build/main.o
 .group         0x0000000000000000        0xc build/main.o
 .group         0x0000000000000000        0xc build/main.o
 .group         0x0000000000000000        0xc build/main.o
 .group         0x0000000000000000        0xc build/main.o
 .group         0x0000000000000000        0xc build/main.o
 .group         0x0000000000000000        0xc build/main.o
 .group         0x0000000000000000        0xc build/main.o
 .group         0x0000000000000000        0xc build/main.o
 .group         0x0000000000000000        0xc build/main.o
 .group         0x0000000000000000        0xc build/main.o
 .group         0x0000000000000000        0xc build/main.o
 .group         0x0000000000000000        0xc build/main.o
 .group         0x0000000000000000        0xc build/main.o
 .group         0x0000000000000000        0xc build/main.o
 .group         0x0000000000000000        0xc build/main.o
 .group         0x0000000000000000        0xc build/main.o
 .group         0x0000000000000000        0xc build/main.o
 .group         0x0000000000000000        0xc build/main.o
 .group         0x0000000000000000        0xc build/main.o
 .group         0x0000000000000000        0xc build/main.o
 .group         0x0000000000000000        0xc build/main.o
 .text          0x0000000000000000        0x0 build/main.o
 .data          0x0000000000000000        0x0 build/main.o
 .bss           0x0000000000000000        0x0 build/main.o
 .data.Logotip1
                0x0000000000000000      0x1c0 build/main.o
 .text._write   0x0000000000000000       0x8e build/main.o
 .group         0x0000000000000000        0xc build/text.o
 .group         0x0000000000000000        0xc build/text.o
 .group         0x0000000000000000        0xc build/text.o
 .group         0x0000000000000000        0xc build/text.o
 .group         0x0000000000000000        0xc build/text.o
 .group         0x0000000000000000        0xc build/text.o
 .group         0x0000000000000000        0xc build/text.o
 .group         0x0000000000000000        0xc build/text.o
 .group         0x0000000000000000        0xc build/text.o
 .group         0x0000000000000000        0xc build/text.o
 .group         0x0000000000000000        0xc build/text.o
 .group         0x0000000000000000        0xc build/text.o
 .group         0x0000000000000000        0xc build/text.o
 .group         0x0000000000000000        0xc build/text.o
 .group         0x0000000000000000        0xc build/text.o
 .group         0x0000000000000000        0xc build/text.o
 .group         0x0000000000000000        0xc build/text.o
 .group         0x0000000000000000        0xc build/text.o
 .group         0x0000000000000000        0xc build/text.o
 .group         0x0000000000000000        0xc build/text.o
 .group         0x0000000000000000        0xc build/text.o
 .group         0x0000000000000000        0xc build/text.o
 .group         0x0000000000000000        0xc build/text.o
 .group         0x0000000000000000        0xc build/text.o
 .group         0x0000000000000000        0xc build/text.o
 .group         0x0000000000000000        0xc build/text.o
 .text          0x0000000000000000        0x0 build/text.o
 .data          0x0000000000000000        0x0 build/text.o
 .bss           0x0000000000000000        0x0 build/text.o
 .debug_macro   0x0000000000000000      0x76c build/text.o
 .debug_macro   0x0000000000000000       0x22 build/text.o
 .debug_macro   0x0000000000000000       0x52 build/text.o
 .debug_macro   0x0000000000000000       0x19 build/text.o
 .debug_macro   0x0000000000000000       0x94 build/text.o
 .debug_macro   0x0000000000000000       0x34 build/text.o
 .debug_macro   0x0000000000000000       0x34 build/text.o
 .debug_macro   0x0000000000000000       0x16 build/text.o
 .debug_macro   0x0000000000000000       0x43 build/text.o
 .debug_macro   0x0000000000000000       0x57 build/text.o
 .debug_macro   0x0000000000000000       0x34 build/text.o
 .debug_macro   0x0000000000000000       0x10 build/text.o
 .debug_macro   0x0000000000000000       0x52 build/text.o
 .debug_macro   0x0000000000000000      0x182 build/text.o
 .debug_macro   0x0000000000000000      0x341 build/text.o
 .debug_macro   0x0000000000000000      0x103 build/text.o
 .debug_macro   0x0000000000000000       0x6a build/text.o
 .debug_macro   0x0000000000000000      0x1df build/text.o
 .debug_macro   0x0000000000000000     0x4c43 build/text.o
 .debug_macro   0x0000000000000000       0x26 build/text.o
 .debug_macro   0x0000000000000000       0x3a build/text.o
 .group         0x0000000000000000        0xc build/Font_ASCII_6x8.o
 .group         0x0000000000000000        0xc build/Font_ASCII_6x8.o
 .group         0x0000000000000000        0xc build/Font_ASCII_6x8.o
 .group         0x0000000000000000        0xc build/Font_ASCII_6x8.o
 .group         0x0000000000000000        0xc build/Font_ASCII_6x8.o
 .group         0x0000000000000000        0xc build/Font_ASCII_6x8.o
 .group         0x0000000000000000        0xc build/Font_ASCII_6x8.o
 .group         0x0000000000000000        0xc build/Font_ASCII_6x8.o
 .text          0x0000000000000000        0x0 build/Font_ASCII_6x8.o
 .data          0x0000000000000000        0x0 build/Font_ASCII_6x8.o
 .bss           0x0000000000000000        0x0 build/Font_ASCII_6x8.o
 .debug_macro   0x0000000000000000      0x76c build/Font_ASCII_6x8.o
 .debug_macro   0x0000000000000000       0x22 build/Font_ASCII_6x8.o
 .debug_macro   0x0000000000000000      0x103 build/Font_ASCII_6x8.o
 .debug_macro   0x0000000000000000       0x6a build/Font_ASCII_6x8.o
 .debug_macro   0x0000000000000000      0x1df build/Font_ASCII_6x8.o
 .debug_macro   0x0000000000000000     0x4c43 build/Font_ASCII_6x8.o
 .group         0x0000000000000000        0xc build/lcd_MLDR187.o
 .group         0x0000000000000000        0xc build/lcd_MLDR187.o
 .group         0x0000000000000000        0xc build/lcd_MLDR187.o
 .group         0x0000000000000000        0xc build/lcd_MLDR187.o
 .group         0x0000000000000000        0xc build/lcd_MLDR187.o
 .group         0x0000000000000000        0xc build/lcd_MLDR187.o
 .group         0x0000000000000000        0xc build/lcd_MLDR187.o
 .group         0x0000000000000000        0xc build/lcd_MLDR187.o
 .group         0x0000000000000000        0xc build/lcd_MLDR187.o
 .group         0x0000000000000000        0xc build/lcd_MLDR187.o
 .group         0x0000000000000000        0xc build/lcd_MLDR187.o
 .text          0x0000000000000000        0x0 build/lcd_MLDR187.o
 .data          0x0000000000000000        0x0 build/lcd_MLDR187.o
 .bss           0x0000000000000000        0x0 build/lcd_MLDR187.o
 .text.LCD_PutPixel
                0x0000000000000000      0x13c build/lcd_MLDR187.o
 .debug_macro   0x0000000000000000      0x76c build/lcd_MLDR187.o
 .debug_macro   0x0000000000000000       0x22 build/lcd_MLDR187.o
 .debug_macro   0x0000000000000000       0x8e build/lcd_MLDR187.o
 .debug_macro   0x0000000000000000       0x51 build/lcd_MLDR187.o
 .debug_macro   0x0000000000000000      0x103 build/lcd_MLDR187.o
 .debug_macro   0x0000000000000000       0x6a build/lcd_MLDR187.o
 .debug_macro   0x0000000000000000      0x1df build/lcd_MLDR187.o
 .debug_macro   0x0000000000000000     0x4c43 build/lcd_MLDR187.o
 .debug_macro   0x0000000000000000       0x2e build/lcd_MLDR187.o
 .debug_macro   0x0000000000000000       0x26 build/lcd_MLDR187.o
 .debug_macro   0x0000000000000000       0xac build/lcd_MLDR187.o
 .group         0x0000000000000000        0xc build/MLDR187_bkp.o
 .group         0x0000000000000000        0xc build/MLDR187_bkp.o
 .group         0x0000000000000000        0xc build/MLDR187_bkp.o
 .group         0x0000000000000000        0xc build/MLDR187_bkp.o
 .group         0x0000000000000000        0xc build/MLDR187_bkp.o
 .group         0x0000000000000000        0xc build/MLDR187_bkp.o
 .group         0x0000000000000000        0xc build/MLDR187_bkp.o
 .group         0x0000000000000000        0xc build/MLDR187_bkp.o
 .group         0x0000000000000000        0xc build/MLDR187_bkp.o
 .group         0x0000000000000000        0xc build/MLDR187_bkp.o
 .text          0x0000000000000000        0x0 build/MLDR187_bkp.o
 .data          0x0000000000000000        0x0 build/MLDR187_bkp.o
 .bss           0x0000000000000000        0x0 build/MLDR187_bkp.o
 .sdata.BKP_LSE_Speed
                0x0000000000000000        0x4 build/MLDR187_bkp.o
 .text.BKP_Init
                0x0000000000000000      0x24a build/MLDR187_bkp.o
 .text.BKP_StructInitDefault
                0x0000000000000000       0x86 build/MLDR187_bkp.o
 .text.BKP_DeInit
                0x0000000000000000       0xe6 build/MLDR187_bkp.o
 .text.BKP_GetBootMode
                0x0000000000000000       0x24 build/MLDR187_bkp.o
 .text.BKP_GetFPOR
                0x0000000000000000       0x2c build/MLDR187_bkp.o
 .text.BKP_SetFPOR
                0x0000000000000000       0x70 build/MLDR187_bkp.o
 .text.BKP_GetCovDetectionFlag
                0x0000000000000000       0x2c build/MLDR187_bkp.o
 .text.BKP_SetTamperNewState
                0x0000000000000000       0x54 build/MLDR187_bkp.o
 .text.BKP_SetCovDetectionFlag
                0x0000000000000000       0x78 build/MLDR187_bkp.o
 .text.BKP_GetWakeupStates
                0x0000000000000000       0x18 build/MLDR187_bkp.o
 .text.BKP_GetSWPinState
                0x0000000000000000       0x2c build/MLDR187_bkp.o
 .text.BKP_SwitchOffAlarmPower
                0x0000000000000000       0x3c build/MLDR187_bkp.o
 .text.BKP_ConvertToBINFormat
                0x0000000000000000       0xca build/MLDR187_bkp.o
 .text.BKP_ConvertToBCDFormat
                0x0000000000000000       0xca build/MLDR187_bkp.o
 .text.BKP_GetDateTimeBCD
                0x0000000000000000       0x60 build/MLDR187_bkp.o
 .text.BKP_GetDateTimeBCDTimestamp
                0x0000000000000000       0xe8 build/MLDR187_bkp.o
 .text.BKP_SetDateTimeBCD
                0x0000000000000000      0x108 build/MLDR187_bkp.o
 .text.BKP_SetAlarm
                0x0000000000000000      0x12a build/MLDR187_bkp.o
 .text.BKP_SetItNewState
                0x0000000000000000       0xac build/MLDR187_bkp.o
 .text.BKP_SetAlarmNewState
                0x0000000000000000       0x5a build/MLDR187_bkp.o
 .text.BKP_GetFlags
                0x0000000000000000       0x2c build/MLDR187_bkp.o
 .text.BKP_GetSingleFlag
                0x0000000000000000       0x30 build/MLDR187_bkp.o
 .text.BKP_InitTamper
                0x0000000000000000       0xc4 build/MLDR187_bkp.o
 .text.BKP_InitExternalEvent
                0x0000000000000000       0xca build/MLDR187_bkp.o
 .text.BKP_GetTamperEventState
                0x0000000000000000       0x2a build/MLDR187_bkp.o
 .text.BCDtoBIN
                0x0000000000000000       0x44 build/MLDR187_bkp.o
 .text.BINtoBCD
                0x0000000000000000       0x52 build/MLDR187_bkp.o
 .text.BKP_GetDateTimeReg
                0x0000000000000000       0xde build/MLDR187_bkp.o
 .text.BKP_WaitComplete
                0x0000000000000000       0x34 build/MLDR187_bkp.o
 .text.BKP_WaitRTCCycle
                0x0000000000000000       0xac build/MLDR187_bkp.o
 .debug_macro   0x0000000000000000      0x76c build/MLDR187_bkp.o
 .debug_macro   0x0000000000000000       0x22 build/MLDR187_bkp.o
 .debug_macro   0x0000000000000000       0x8e build/MLDR187_bkp.o
 .debug_macro   0x0000000000000000       0x51 build/MLDR187_bkp.o
 .debug_macro   0x0000000000000000      0x103 build/MLDR187_bkp.o
 .debug_macro   0x0000000000000000       0x6a build/MLDR187_bkp.o
 .debug_macro   0x0000000000000000      0x1df build/MLDR187_bkp.o
 .debug_macro   0x0000000000000000     0x4c43 build/MLDR187_bkp.o
 .debug_macro   0x0000000000000000       0x28 build/MLDR187_bkp.o
 .debug_macro   0x0000000000000000       0x26 build/MLDR187_bkp.o
 .group         0x0000000000000000        0xc build/MLDR187_eeprom.o
 .group         0x0000000000000000        0xc build/MLDR187_eeprom.o
 .group         0x0000000000000000        0xc build/MLDR187_eeprom.o
 .group         0x0000000000000000        0xc build/MLDR187_eeprom.o
 .group         0x0000000000000000        0xc build/MLDR187_eeprom.o
 .group         0x0000000000000000        0xc build/MLDR187_eeprom.o
 .group         0x0000000000000000        0xc build/MLDR187_eeprom.o
 .group         0x0000000000000000        0xc build/MLDR187_eeprom.o
 .group         0x0000000000000000        0xc build/MLDR187_eeprom.o
 .group         0x0000000000000000        0xc build/MLDR187_eeprom.o
 .text          0x0000000000000000        0x0 build/MLDR187_eeprom.o
 .data          0x0000000000000000        0x0 build/MLDR187_eeprom.o
 .bss           0x0000000000000000        0x0 build/MLDR187_eeprom.o
 EXECUTABLE_MEMORY_SECTION
                0x0000000000000000      0x802 build/MLDR187_eeprom.o
 .debug_macro   0x0000000000000000      0x76c build/MLDR187_eeprom.o
 .debug_macro   0x0000000000000000       0x22 build/MLDR187_eeprom.o
 .debug_macro   0x0000000000000000       0x8e build/MLDR187_eeprom.o
 .debug_macro   0x0000000000000000       0x51 build/MLDR187_eeprom.o
 .debug_macro   0x0000000000000000      0x103 build/MLDR187_eeprom.o
 .debug_macro   0x0000000000000000       0x6a build/MLDR187_eeprom.o
 .debug_macro   0x0000000000000000      0x1df build/MLDR187_eeprom.o
 .debug_macro   0x0000000000000000     0x4c43 build/MLDR187_eeprom.o
 .debug_macro   0x0000000000000000       0x28 build/MLDR187_eeprom.o
 .debug_macro   0x0000000000000000       0x26 build/MLDR187_eeprom.o
 .group         0x0000000000000000        0xc build/MLDR187_gpio.o
 .group         0x0000000000000000        0xc build/MLDR187_gpio.o
 .group         0x0000000000000000        0xc build/MLDR187_gpio.o
 .group         0x0000000000000000        0xc build/MLDR187_gpio.o
 .group         0x0000000000000000        0xc build/MLDR187_gpio.o
 .group         0x0000000000000000        0xc build/MLDR187_gpio.o
 .group         0x0000000000000000        0xc build/MLDR187_gpio.o
 .group         0x0000000000000000        0xc build/MLDR187_gpio.o
 .group         0x0000000000000000        0xc build/MLDR187_gpio.o
 .group         0x0000000000000000        0xc build/MLDR187_gpio.o
 .text          0x0000000000000000        0x0 build/MLDR187_gpio.o
 .data          0x0000000000000000        0x0 build/MLDR187_gpio.o
 .bss           0x0000000000000000        0x0 build/MLDR187_gpio.o
 .text.PORT_StructInitDefault
                0x0000000000000000       0x3a build/MLDR187_gpio.o
 .text.PORT_DeInit
                0x0000000000000000       0x48 build/MLDR187_gpio.o
 .text.PORT_ReadBackPort
                0x0000000000000000       0x1c build/MLDR187_gpio.o
 .text.PORT_ReadBackPin
                0x0000000000000000       0x34 build/MLDR187_gpio.o
 .debug_macro   0x0000000000000000      0x76c build/MLDR187_gpio.o
 .debug_macro   0x0000000000000000       0x22 build/MLDR187_gpio.o
 .debug_macro   0x0000000000000000       0x8e build/MLDR187_gpio.o
 .debug_macro   0x0000000000000000       0x51 build/MLDR187_gpio.o
 .debug_macro   0x0000000000000000      0x103 build/MLDR187_gpio.o
 .debug_macro   0x0000000000000000       0x6a build/MLDR187_gpio.o
 .debug_macro   0x0000000000000000      0x1df build/MLDR187_gpio.o
 .debug_macro   0x0000000000000000     0x4c43 build/MLDR187_gpio.o
 .debug_macro   0x0000000000000000       0x28 build/MLDR187_gpio.o
 .debug_macro   0x0000000000000000       0x26 build/MLDR187_gpio.o
 .group         0x0000000000000000        0xc build/MLDR187_rst_clk.o
 .group         0x0000000000000000        0xc build/MLDR187_rst_clk.o
 .group         0x0000000000000000        0xc build/MLDR187_rst_clk.o
 .group         0x0000000000000000        0xc build/MLDR187_rst_clk.o
 .group         0x0000000000000000        0xc build/MLDR187_rst_clk.o
 .group         0x0000000000000000        0xc build/MLDR187_rst_clk.o
 .group         0x0000000000000000        0xc build/MLDR187_rst_clk.o
 .group         0x0000000000000000        0xc build/MLDR187_rst_clk.o
 .group         0x0000000000000000        0xc build/MLDR187_rst_clk.o
 .group         0x0000000000000000        0xc build/MLDR187_rst_clk.o
 .text          0x0000000000000000        0x0 build/MLDR187_rst_clk.o
 .data          0x0000000000000000        0x0 build/MLDR187_rst_clk.o
 .bss           0x0000000000000000        0x0 build/MLDR187_rst_clk.o
 .text.RST_CLK_SetupLsPeripheralCLock
                0x0000000000000000      0x124 build/MLDR187_rst_clk.o
 .text.RST_CLK_IsPeripheralClockEnabled
                0x0000000000000000       0x30 build/MLDR187_rst_clk.o
 .text.RST_CLK_ResetKeyRAM
                0x0000000000000000       0x1e build/MLDR187_rst_clk.o
 .debug_macro   0x0000000000000000      0x76c build/MLDR187_rst_clk.o
 .debug_macro   0x0000000000000000       0x22 build/MLDR187_rst_clk.o
 .debug_macro   0x0000000000000000       0x8e build/MLDR187_rst_clk.o
 .debug_macro   0x0000000000000000       0x51 build/MLDR187_rst_clk.o
 .debug_macro   0x0000000000000000      0x103 build/MLDR187_rst_clk.o
 .debug_macro   0x0000000000000000       0x6a build/MLDR187_rst_clk.o
 .debug_macro   0x0000000000000000      0x1df build/MLDR187_rst_clk.o
 .debug_macro   0x0000000000000000     0x4c43 build/MLDR187_rst_clk.o
 .debug_macro   0x0000000000000000       0x28 build/MLDR187_rst_clk.o
 .group         0x0000000000000000        0xc build/MLDR187_uart.o
 .group         0x0000000000000000        0xc build/MLDR187_uart.o
 .group         0x0000000000000000        0xc build/MLDR187_uart.o
 .group         0x0000000000000000        0xc build/MLDR187_uart.o
 .group         0x0000000000000000        0xc build/MLDR187_uart.o
 .group         0x0000000000000000        0xc build/MLDR187_uart.o
 .group         0x0000000000000000        0xc build/MLDR187_uart.o
 .group         0x0000000000000000        0xc build/MLDR187_uart.o
 .group         0x0000000000000000        0xc build/MLDR187_uart.o
 .group         0x0000000000000000        0xc build/MLDR187_uart.o
 .group         0x0000000000000000        0xc build/MLDR187_uart.o
 .group         0x0000000000000000        0xc build/MLDR187_uart.o
 .text          0x0000000000000000        0x0 build/MLDR187_uart.o
 .data          0x0000000000000000        0x0 build/MLDR187_uart.o
 .bss           0x0000000000000000        0x0 build/MLDR187_uart.o
 .text.UART_SendBytes
                0x0000000000000000       0xc2 build/MLDR187_uart.o
 .text.UART_SendString
                0x0000000000000000       0x4c build/MLDR187_uart.o
 .text.UART_SendData
                0x0000000000000000       0x26 build/MLDR187_uart.o
 .text.UART_Receive
                0x0000000000000000       0x2a build/MLDR187_uart.o
 .text.UART_ReceiveBytes
                0x0000000000000000       0xe6 build/MLDR187_uart.o
 .text.UART_ReceiveData
                0x0000000000000000       0x1c build/MLDR187_uart.o
 .text.UART_BreakLine
                0x0000000000000000       0x3e build/MLDR187_uart.o
 .text.UART_IrDACmd
                0x0000000000000000       0x3e build/MLDR187_uart.o
 .text.UART_GetFlags
                0x0000000000000000       0x18 build/MLDR187_uart.o
 .text.UART_DMAConfig
                0x0000000000000000       0x2e build/MLDR187_uart.o
 .text.UART_ITsetMask
                0x0000000000000000       0x20 build/MLDR187_uart.o
 .text.UART_ITConfig
                0x0000000000000000       0x4a build/MLDR187_uart.o
 .text.UART_GetITStatus
                0x0000000000000000       0x34 build/MLDR187_uart.o
 .text.UART_GetITStatusMasked
                0x0000000000000000       0x34 build/MLDR187_uart.o
 .text.UART_ClearITPendingBit
                0x0000000000000000       0x20 build/MLDR187_uart.o
 .text.UART_DMACmd
                0x0000000000000000       0x52 build/MLDR187_uart.o
 .text.UART_DMATransmit
                0x0000000000000000      0x160 build/MLDR187_uart.o
 .text.UART_DMAReceive
                0x0000000000000000      0x206 build/MLDR187_uart.o
 .text.UART_DMACycleModeRefresh
                0x0000000000000000      0x10c build/MLDR187_uart.o
 .text.UART_GetDMAaddresses
                0x0000000000000000       0xea build/MLDR187_uart.o
 .debug_macro   0x0000000000000000      0x76c build/MLDR187_uart.o
 .debug_macro   0x0000000000000000       0x22 build/MLDR187_uart.o
 .debug_macro   0x0000000000000000       0x8e build/MLDR187_uart.o
 .debug_macro   0x0000000000000000       0x51 build/MLDR187_uart.o
 .debug_macro   0x0000000000000000      0x103 build/MLDR187_uart.o
 .debug_macro   0x0000000000000000       0x6a build/MLDR187_uart.o
 .debug_macro   0x0000000000000000      0x1df build/MLDR187_uart.o
 .debug_macro   0x0000000000000000     0x4c43 build/MLDR187_uart.o
 .debug_macro   0x0000000000000000       0x28 build/MLDR187_uart.o
 .debug_macro   0x0000000000000000       0x26 build/MLDR187_uart.o
 .text          0x0000000000000000        0x0 build/startup_MLDR187.o
 .bss           0x0000000000000000        0x0 build/startup_MLDR187.o
 .text          0x0000000000000000        0x0 c:/program files/toolchain/xpack-riscv-none-embed-gcc-10.2.0-1.1/bin/../lib/gcc/riscv-none-embed/10.2.0/../../../../riscv-none-embed/lib/rv32imc/ilp32\libg_nano.a(lib_a-init.o)
 .data          0x0000000000000000        0x0 c:/program files/toolchain/xpack-riscv-none-embed-gcc-10.2.0-1.1/bin/../lib/gcc/riscv-none-embed/10.2.0/../../../../riscv-none-embed/lib/rv32imc/ilp32\libg_nano.a(lib_a-init.o)
 .bss           0x0000000000000000        0x0 c:/program files/toolchain/xpack-riscv-none-embed-gcc-10.2.0-1.1/bin/../lib/gcc/riscv-none-embed/10.2.0/../../../../riscv-none-embed/lib/rv32imc/ilp32\libg_nano.a(lib_a-init.o)

Memory Configuration

Name             Origin             Length             Attributes
FLASH            0x0000000010000000 0x0000000000040000 xr
OTP              0x0000000000020000 0x0000000000004000 xr
TCMA_RAM         0x0000000080000000 0x0000000000010000 xrw
TCMB_RAM         0x0000000080010000 0x0000000000008000 xrw
AHB_RAM          0x0000000020000000 0x0000000000004000 xrw
*default*        0x0000000000000000 0xffffffffffffffff

Linker script and memory map

LOAD build/main.o
LOAD build/text.o
LOAD build/Font_ASCII_6x8.o
LOAD build/lcd_MLDR187.o
LOAD build/MLDR187_bkp.o
LOAD build/MLDR187_eeprom.o
LOAD build/MLDR187_gpio.o
LOAD build/MLDR187_rst_clk.o
LOAD build/MLDR187_uart.o
LOAD build/startup_MLDR187.o
LOAD c:/program files/toolchain/xpack-riscv-none-embed-gcc-10.2.0-1.1/bin/../lib/gcc/riscv-none-embed/10.2.0/rv32imc/ilp32\libgcc.a
LOAD c:/program files/toolchain/xpack-riscv-none-embed-gcc-10.2.0-1.1/bin/../lib/gcc/riscv-none-embed/10.2.0/../../../../riscv-none-embed/lib/rv32imc/ilp32\libg_nano.a
LOAD c:/program files/toolchain/xpack-riscv-none-embed-gcc-10.2.0-1.1/bin/../lib/gcc/riscv-none-embed/10.2.0/../../../../riscv-none-embed/lib/rv32imc/ilp32\libc_nano.a
LOAD c:/program files/toolchain/xpack-riscv-none-embed-gcc-10.2.0-1.1/bin/../lib/gcc/riscv-none-embed/10.2.0/rv32imc/ilp32\libgcc.a
START GROUP
LOAD c:/program files/toolchain/xpack-riscv-none-embed-gcc-10.2.0-1.1/bin/../lib/gcc/riscv-none-embed/10.2.0/rv32imc/ilp32\libgcc.a
LOAD c:/program files/toolchain/xpack-riscv-none-embed-gcc-10.2.0-1.1/bin/../lib/gcc/riscv-none-embed/10.2.0/../../../../riscv-none-embed/lib/rv32imc/ilp32\libc_nano.a
END GROUP
                0x0000000000001000                __stack_size = 0x1000
                0x0000000000001000                __heap_min_size = 0x1000

.text.init      0x0000000010000000      0x146
 *(.text.init)
 .text.init     0x0000000010000000      0x146 build/startup_MLDR187.o
                0x0000000010000000                _start

.text           0x0000000010000146     0x2c4e
                0x0000000010000148                . = ALIGN (0x4)
 *fill*         0x0000000010000146        0x2 
 *(.text*)
 .text.SysTick_Handler
                0x0000000010000148       0x3e build/main.o
                0x0000000010000148                SysTick_Handler
 .text.main     0x0000000010000186      0x1ae build/main.o
                0x0000000010000186                main
 .text.Setup_Interrupts
                0x0000000010000334       0x60 build/main.o
                0x0000000010000334                Setup_Interrupts
 .text.Setup_CPU_Clock
                0x0000000010000394       0x88 build/main.o
                0x0000000010000394                Setup_CPU_Clock
 .text.Setup_UART
                0x000000001000041c       0xc4 build/main.o
                0x000000001000041c                Setup_UART
 .text.Setup_Key
                0x00000000100004e0       0x48 build/main.o
                0x00000000100004e0                Setup_Key
 .text.Setup_LED_Port
                0x0000000010000528       0x78 build/main.o
                0x0000000010000528                Setup_LED_Port
 .text.puts     0x00000000100005a0       0x76 build/main.o
                0x00000000100005a0                puts
 .text.LCD_PUT_PICT
                0x0000000010000616       0xd8 build/text.o
                0x0000000010000616                LCD_PUT_PICT
 .text.LCD_PUT_BYTE
                0x00000000100006ee      0x350 build/text.o
                0x00000000100006ee                LCD_PUT_BYTE
 .text.LCD_PUTC
                0x0000000010000a3e      0x120 build/text.o
                0x0000000010000a3e                LCD_PUTC
 .text.LCD_PUTS
                0x0000000010000b5e       0x86 build/text.o
                0x0000000010000b5e                LCD_PUTS
 .text.LCDClock
                0x0000000010000be4       0x2e build/lcd_MLDR187.o
                0x0000000010000be4                LCDClock
 .text.ResetLCD
                0x0000000010000c12       0x2c build/lcd_MLDR187.o
                0x0000000010000c12                ResetLCD
 .text.SetCrystal
                0x0000000010000c3e       0x50 build/lcd_MLDR187.o
                0x0000000010000c3e                SetCrystal
 .text.WriteLCD_Cmd
                0x0000000010000c8e       0xa6 build/lcd_MLDR187.o
                0x0000000010000c8e                WriteLCD_Cmd
 .text.WriteLCD_Data
                0x0000000010000d34       0xa6 build/lcd_MLDR187.o
                0x0000000010000d34                WriteLCD_Data
 .text.ReadLCD_Cmd
                0x0000000010000dda       0x58 build/lcd_MLDR187.o
                0x0000000010000dda                ReadLCD_Cmd
 .text.ReadLCD_Data
                0x0000000010000e32       0x5a build/lcd_MLDR187.o
                0x0000000010000e32                ReadLCD_Data
 .text.LCD_INIT
                0x0000000010000e8c       0xb0 build/lcd_MLDR187.o
                0x0000000010000e8c                LCD_INIT
 .text.LCD_CLS  0x0000000010000f3c       0x8e build/lcd_MLDR187.o
                0x0000000010000f3c                LCD_CLS
 .text.GetStatus
                0x0000000010000fca       0x1e build/lcd_MLDR187.o
 .text.WhileStatus
                0x0000000010000fe8       0x32 build/lcd_MLDR187.o
 .text.Pause    0x000000001000101a       0x28 build/lcd_MLDR187.o
 .text.BKP_FreqGenCmd
                0x0000000010001042      0x1ae build/MLDR187_bkp.o
                0x0000000010001042                BKP_FreqGenCmd
 .text.BKP_GenState
                0x00000000100011f0       0x64 build/MLDR187_bkp.o
                0x00000000100011f0                BKP_GenState
 .text.BKP_GenWaitForOn
                0x0000000010001254       0x5c build/MLDR187_bkp.o
 .text.BKP_DisableWP
                0x00000000100012b0       0x42 build/MLDR187_bkp.o
 .text.BKP_EnableWP
                0x00000000100012f2       0x16 build/MLDR187_bkp.o
 .text.EEPROM_SetLatency
                0x0000000010001308       0x50 build/MLDR187_eeprom.o
                0x0000000010001308                EEPROM_SetLatency
 .text.PORT_Init
                0x0000000010001358      0x1be build/MLDR187_gpio.o
                0x0000000010001358                PORT_Init
 .text.PORT_Write
                0x0000000010001516       0x5c build/MLDR187_gpio.o
                0x0000000010001516                PORT_Write
 .text.PORT_Read
                0x0000000010001572       0x1c build/MLDR187_gpio.o
                0x0000000010001572                PORT_Read
 .text.PORT_ReadPin
                0x000000001000158e       0x34 build/MLDR187_gpio.o
                0x000000001000158e                PORT_ReadPin
 .text.PORT_SetReset
                0x00000000100015c2       0x38 build/MLDR187_gpio.o
                0x00000000100015c2                PORT_SetReset
 .text.RST_CLK_SetupCpuSpeed
                0x00000000100015fa      0x486 build/MLDR187_rst_clk.o
                0x00000000100015fa                RST_CLK_SetupCpuSpeed
 .text.RST_CLK_SetupHsPeripheralClock
                0x0000000010001a80      0x1ca build/MLDR187_rst_clk.o
                0x0000000010001a80                RST_CLK_SetupHsPeripheralClock
 .text.RST_CLK_EnablePeripheralClock
                0x0000000010001c4a      0x67c build/MLDR187_rst_clk.o
                0x0000000010001c4a                RST_CLK_EnablePeripheralClock
 .text.RST_CLK_DisablePeripheralClock
                0x00000000100022c6      0x3fc build/MLDR187_rst_clk.o
                0x00000000100022c6                RST_CLK_DisablePeripheralClock
 .text.rccEncodeDivisor3bit
                0x00000000100026c2       0x84 build/MLDR187_rst_clk.o
 .text.rccEncodeDivisor4bit
                0x0000000010002746       0x8c build/MLDR187_rst_clk.o
 .text.rccEncodeDivisorNumeric
                0x00000000100027d2       0x98 build/MLDR187_rst_clk.o
 .text.UART_Init
                0x000000001000286a      0x2de build/MLDR187_uart.o
                0x000000001000286a                UART_Init
 .text.UART_StructInitDefault
                0x0000000010002b48       0xa0 build/MLDR187_uart.o
                0x0000000010002b48                UART_StructInitDefault
 .text.UART_DeInit
                0x0000000010002be8       0xb6 build/MLDR187_uart.o
                0x0000000010002be8                UART_DeInit
 .text.UART_Cmd
                0x0000000010002c9e       0x3e build/MLDR187_uart.o
                0x0000000010002c9e                UART_Cmd
 .text.UART_Send
                0x0000000010002cdc       0x36 build/MLDR187_uart.o
                0x0000000010002cdc                UART_Send
 .text.UART_GetFlagStatus
                0x0000000010002d12       0x34 build/MLDR187_uart.o
                0x0000000010002d12                UART_GetFlagStatus
 .text.__libc_init_array
                0x0000000010002d46       0x4e c:/program files/toolchain/xpack-riscv-none-embed-gcc-10.2.0-1.1/bin/../lib/gcc/riscv-none-embed/10.2.0/../../../../riscv-none-embed/lib/rv32imc/ilp32\libg_nano.a(lib_a-init.o)
                0x0000000010002d46                __libc_init_array

.rodata         0x0000000010002d94      0x880
                0x0000000010002d94                . = ALIGN (0x4)
 *(.rodata*)
 .rodata.Logotip
                0x0000000010002d94      0x1c0 build/main.o
                0x0000000010002d94                Logotip
 .rodata        0x0000000010002f54       0x2d build/main.o
 *fill*         0x0000000010002f81        0x3 
 .rodata.LCD_PUT_BYTE
                0x0000000010002f84       0x28 build/text.o
 .rodata.Font_ASCII_6x8_Data
                0x0000000010002fac      0x600 build/Font_ASCII_6x8.o
 .rodata.rccEncodeDivisor3bit
                0x00000000100035ac       0x20 build/MLDR187_rst_clk.o
 .rodata.rccEncodeDivisor4bit
                0x00000000100035cc       0x24 build/MLDR187_rst_clk.o
 .rodata.rccEncodeDivisorNumeric
                0x00000000100035f0       0x24 build/MLDR187_rst_clk.o
 *(.srodata*)

.dalign         0x0000000010003614        0x0
                0x0000000010003614                . = ALIGN (0x4)
                0x0000000010003614                __data_load_start = LOADADDR (.data)

.data           0x0000000080000000      0x15c load address 0x0000000010003614
                0x0000000080000000                . = ALIGN (0x4)
                0x0000000080000000                __data_start = .
 *(.data*)
 .data.Font_ASCII_6x8
                0x0000000080000000       0x10 build/Font_ASCII_6x8.o
                0x0000000080000000                Font_ASCII_6x8
 *fill*         0x0000000080000010       0x30 
 .data          0x0000000080000040      0x110 build/startup_MLDR187.o
                0x0000000080000140                brk_base
                0x0000000080000148                brk_size
                0x0000000080000150                . = ALIGN (0x8)
                0x0000000080000150                __sdata_start = .
 *(.sdata*)
 .sdata.CurrentFont
                0x0000000080000150        0x4 build/text.o
                0x0000000080000150                CurrentFont
 .sdata.RST_CLK_CpuSpeed
                0x0000000080000154        0x4 build/MLDR187_rst_clk.o
                0x0000000080000154                RST_CLK_CpuSpeed
 .sdata.RST_CLK_HclkSpeed
                0x0000000080000158        0x4 build/MLDR187_rst_clk.o
                0x0000000080000158                RST_CLK_HclkSpeed
                0x000000008000015c                . = ALIGN (0x4)
                0x000000008000015c                __data_end = .

.bss            0x000000008000015c       0xc4
                0x0000000080000160                . = ALIGN (0x8)
 *fill*         0x000000008000015c        0x4 
                0x0000000080000160                __bss_start = .
 *(.sbss*)
 .sbss.DelayCnt
                0x0000000080000160        0x4 build/main.o
                0x0000000080000160                DelayCnt
 .sbss.TickTock
                0x0000000080000164        0x1 build/main.o
                0x0000000080000164                TickTock
 *fill*         0x0000000080000165        0x3 
 .sbss.CurrentCrystal
                0x0000000080000168        0x4 build/lcd_MLDR187.o
                0x0000000080000168                CurrentCrystal
 .sbss.LCD_CurrentMethod
                0x000000008000016c        0x4 build/lcd_MLDR187.o
                0x000000008000016c                LCD_CurrentMethod
 .sbss.RST_CLK_PER1C2_Speed
                0x0000000080000170        0x4 build/MLDR187_rst_clk.o
                0x0000000080000170                RST_CLK_PER1C2_Speed
 .sbss.rccHseSpeed
                0x0000000080000174        0x4 build/MLDR187_rst_clk.o
 .sbss.rccCpuC1Speed
                0x0000000080000178        0x4 build/MLDR187_rst_clk.o
 .sbss.rccPllSpeed
                0x000000008000017c        0x4 build/MLDR187_rst_clk.o
 .sbss.rccCpuC3Speed
                0x0000000080000180        0x4 build/MLDR187_rst_clk.o
 .sbss.rccPer1C1Speed
                0x0000000080000184        0x4 build/MLDR187_rst_clk.o
 .sbss.rccAdcUIC1Speed
                0x0000000080000188        0x4 build/MLDR187_rst_clk.o
 .sbss.rccAdcC1Speed
                0x000000008000018c        0x4 build/MLDR187_rst_clk.o
 .sbss.rccWwdgSpeed
                0x0000000080000190        0x4 build/MLDR187_rst_clk.o
 *(.scommon)
 *(.bss*)
 .bss.PORT_InitStructure
                0x0000000080000194       0x14 build/main.o
                0x0000000080000194                PORT_InitStructure
 .bss.UART_InitStructure
                0x00000000800001a8       0x44 build/main.o
                0x00000000800001a8                UART_InitStructure
 .bss.RST_CLK_CpuSpeed_InitStructure
                0x00000000800001ec       0x20 build/main.o
                0x00000000800001ec                RST_CLK_CpuSpeed_InitStructure
 .bss.PORT_InitStructure.0
                0x000000008000020c       0x14 build/lcd_MLDR187.o
 *(COMMON)
                0x0000000080000220                . = ALIGN (0x8)
                0x0000000080000220                __bss_end = .
                0x0000000080000800                __global_pointer$ = MIN ((__sdata_start + 0x800), MAX ((__data_start + 0x800), (__bss_end - 0x800)))
                0x0000000080000220                . = ALIGN (0x8)
                0x0000000080000220                __end = .

.aalign         0x0000000010003770        0x0
                0x0000000010003770                . = ALIGN (0x4)
                0x0000000010003770                __ahbram_data_load_start = LOADADDR (.ahbram_data)

.ahbram_data    0x0000000020000000        0x0 load address 0x0000000010003770
                0x0000000020000000                . = ALIGN (0x4)
                0x0000000020000000                __ahbram_data_start = .
 *(.ahbram_data)
                0x0000000020000000                . = ALIGN (0x4)
                0x0000000020000000                __ahbram_data_end = .

.ahbram_bss     0x0000000020000000        0x0
                0x0000000020000000                . = ALIGN (0x4)
                0x0000000020000000                __ahbram_bss_start = .
 *(.ahbram_bss)
                0x0000000020000000                . = ALIGN (0x4)
                0x0000000020000000                __ahbram_bss_end = .

.ralign         0x0000000010003770        0x0
                0x0000000010003770                . = ALIGN (0x4)
                0x0000000010003770                __ramfunc_load_start = LOADADDR (.ramfunc)

.ramfunc        0x0000000080010000      0x162 load address 0x0000000010003770
                0x0000000080010000                . = ALIGN (0x4)
                0x0000000080010000                __ramfunc_start = .
 *(.ramfunc*)
 .ramfunc       0x0000000080010000      0x162 build/startup_MLDR187.o
                0x0000000080010000                trap_vector
                0x00000000800100d2                trap_iam
                0x00000000800100d4                trap_iaf
                0x00000000800100d6                trap_ii
                0x00000000800100d8                trap_lam
                0x00000000800100da                trap_laf
                0x00000000800100dc                trap_sam
                0x00000000800100de                trap_saf
                0x00000000800100e0                trap_ecallm
                0x00000000800100e2                _exit
                0x00000000800100e4                PendSV_Handler
                0x00000000800100e6                enable_PendSV_Handler
                0x00000000800100ee                disable_PendSV_Handler
                0x00000000800100f8                enable_SysTick_Handler
                0x0000000080010102                disable_SysTick_Handler
                0x000000008001010c                irq_extm
                0x000000008001010e                enable_irq_extm
                0x000000008001011a                disable_irq_extm
                0x0000000080010126                DMA_IRQHandler
                0x0000000080010128                UART1_IRQHandler
                0x000000008001012a                UART2_IRQHandler
                0x000000008001012c                SSP1_IRQHandler
                0x000000008001012e                POWER_IRQHandler
                0x0000000080010130                WWDG_IRQHandler
                0x0000000080010132                Timer1_IRQHandler
                0x0000000080010134                Timer2_IRQHandler
                0x0000000080010136                ADC_IRQHandler
                0x0000000080010138                I2C_IRQHandler
                0x000000008001013a                BACKUP_IRQHandler
                0x000000008001013c                EXT_1_IRQHandler
                0x000000008001013e                EXT_2_IRQHandler
                0x0000000080010140                EXT_3_IRQHandler
                0x0000000080010142                ADCIU_1_IRQHandler
                0x0000000080010144                ADCIU_2_IRQHandler
                0x0000000080010146                ADCIU_3_IRQHandler
                0x0000000080010148                L_BLOCK_IRQHandler
                0x000000008001014a                Default_IRQHandler
                0x000000008001014c                SENSORS_IRQHandler
                0x000000008001014e                CLK_MEASURE_IRQHandler
                0x0000000080010150                RANDOM_IRQHandler
                0x0000000080010152                ISO7816_IRQHandler
                0x0000000080010154                UART3_IRQHandler
                0x0000000080010156                SSP2_IRQHandler
                0x0000000080010158                SSP3_IRQHandler
                0x000000008001015a                Timer3_IRQHandler
                0x000000008001015c                Timer4_IRQHandler
                0x000000008001015e                UART4_IRQHandler
                0x0000000080010160                OTP_Corrupt_IRQHandler

.rela.dyn       0x0000000080010164        0x0 load address 0x00000000100038d2
 .rela.data     0x0000000080010164        0x0 build/main.o
 .rela.text.init
                0x0000000080010164        0x0 build/main.o
 .rela.text.__libc_init_array
                0x0000000080010164        0x0 build/main.o
                0x0000000080010164                . = ALIGN (0x4)
                0x0000000080010164                __ramfunc_end = .
                0x0000000080010000                __stack_top = (ORIGIN (REGION_DATA) + LENGTH (REGION_DATA))
                0x000000008000f000                __stack_limit = (__stack_top - __stack_size)
                0x0000000080000220                __heap_top = __end
                0x000000000000ede0                __heap_size = (__stack_limit - __heap_top)
                0x000000008000f000                __heap_limit = (__heap_top + __heap_size)
                0x0000000000000001                ASSERT ((__heap_size >= __heap_min_size), Unable to allocate __heap_min_size for heap!)

.heap           0x0000000080000220     0xede0
                0x000000008000f000                . = (. + __heap_size)
 *fill*         0x0000000080000220     0xede0 
                0x000000008000f000                __heap_end = .

.stack          0x000000008000f000     0x1000
                0x0000000080010000                . = (. + __stack_size)
 *fill*         0x000000008000f000     0x1000 
                0x0000000080010000                __sp = .
                0x0000000080010000                __freertos_irq_stack_top = .
OUTPUT(build/firmware.elf elf32-littleriscv)

.debug_info     0x0000000000000000     0x50da
 .debug_info    0x0000000000000000      0xd55 build/main.o
 .debug_info    0x0000000000000d55      0x36a build/text.o
 .debug_info    0x00000000000010bf      0x130 build/Font_ASCII_6x8.o
 .debug_info    0x00000000000011ef      0x709 build/lcd_MLDR187.o
 .debug_info    0x00000000000018f8      0xf7d build/MLDR187_bkp.o
 .debug_info    0x0000000000002875      0x4e1 build/MLDR187_eeprom.o
 .debug_info    0x0000000000002d56      0x670 build/MLDR187_gpio.o
 .debug_info    0x00000000000033c6      0xa56 build/MLDR187_rst_clk.o
 .debug_info    0x0000000000003e1c     0x129c build/MLDR187_uart.o
 .debug_info    0x00000000000050b8       0x22 build/startup_MLDR187.o

.debug_abbrev   0x0000000000000000     0x1011
 .debug_abbrev  0x0000000000000000      0x213 build/main.o
 .debug_abbrev  0x0000000000000213      0x124 build/text.o
 .debug_abbrev  0x0000000000000337       0xad build/Font_ASCII_6x8.o
 .debug_abbrev  0x00000000000003e4      0x233 build/lcd_MLDR187.o
 .debug_abbrev  0x0000000000000617      0x283 build/MLDR187_bkp.o
 .debug_abbrev  0x000000000000089a      0x17c build/MLDR187_eeprom.o
 .debug_abbrev  0x0000000000000a16      0x204 build/MLDR187_gpio.o
 .debug_abbrev  0x0000000000000c1a      0x215 build/MLDR187_rst_clk.o
 .debug_abbrev  0x0000000000000e2f      0x1d0 build/MLDR187_uart.o
 .debug_abbrev  0x0000000000000fff       0x12 build/startup_MLDR187.o

.debug_aranges  0x0000000000000000      0x4a0
 .debug_aranges
                0x0000000000000000       0x60 build/main.o
 .debug_aranges
                0x0000000000000060       0x38 build/text.o
 .debug_aranges
                0x0000000000000098       0x18 build/Font_ASCII_6x8.o
 .debug_aranges
                0x00000000000000b0       0x80 build/lcd_MLDR187.o
 .debug_aranges
                0x0000000000000130      0x130 build/MLDR187_bkp.o
 .debug_aranges
                0x0000000000000260       0x68 build/MLDR187_eeprom.o
 .debug_aranges
                0x00000000000002c8       0x60 build/MLDR187_gpio.o
 .debug_aranges
                0x0000000000000328       0x68 build/MLDR187_rst_clk.o
 .debug_aranges
                0x0000000000000390       0xe8 build/MLDR187_uart.o
 .debug_aranges
                0x0000000000000478       0x28 build/startup_MLDR187.o

.debug_ranges   0x0000000000000000      0x418
 .debug_ranges  0x0000000000000000       0x50 build/main.o
 .debug_ranges  0x0000000000000050       0x28 build/text.o
 .debug_ranges  0x0000000000000078       0x70 build/lcd_MLDR187.o
 .debug_ranges  0x00000000000000e8      0x120 build/MLDR187_bkp.o
 .debug_ranges  0x0000000000000208       0x58 build/MLDR187_eeprom.o
 .debug_ranges  0x0000000000000260       0x50 build/MLDR187_gpio.o
 .debug_ranges  0x00000000000002b0       0x70 build/MLDR187_rst_clk.o
 .debug_ranges  0x0000000000000320       0xd8 build/MLDR187_uart.o
 .debug_ranges  0x00000000000003f8       0x20 build/startup_MLDR187.o

.debug_macro    0x0000000000000000     0x73e7
 .debug_macro   0x0000000000000000      0x29d build/main.o
 .debug_macro   0x000000000000029d      0x76c build/main.o
 .debug_macro   0x0000000000000a09       0x22 build/main.o
 .debug_macro   0x0000000000000a2b       0x52 build/main.o
 .debug_macro   0x0000000000000a7d       0x19 build/main.o
 .debug_macro   0x0000000000000a96       0x94 build/main.o
 .debug_macro   0x0000000000000b2a       0x34 build/main.o
 .debug_macro   0x0000000000000b5e       0x34 build/main.o
 .debug_macro   0x0000000000000b92       0x16 build/main.o
 .debug_macro   0x0000000000000ba8       0x57 build/main.o
 .debug_macro   0x0000000000000bff       0x97 build/main.o
 .debug_macro   0x0000000000000c96      0x341 build/main.o
 .debug_macro   0x0000000000000fd7       0xfd build/main.o
 .debug_macro   0x00000000000010d4       0x10 build/main.o
 .debug_macro   0x00000000000010e4       0x16 build/main.o
 .debug_macro   0x00000000000010fa       0x43 build/main.o
 .debug_macro   0x000000000000113d       0x34 build/main.o
 .debug_macro   0x0000000000001171       0x10 build/main.o
 .debug_macro   0x0000000000001181       0x52 build/main.o
 .debug_macro   0x00000000000011d3      0x182 build/main.o
 .debug_macro   0x0000000000001355       0x10 build/main.o
 .debug_macro   0x0000000000001365       0x6a build/main.o
 .debug_macro   0x00000000000013cf       0x1c build/main.o
 .debug_macro   0x00000000000013eb       0x52 build/main.o
 .debug_macro   0x000000000000143d       0x22 build/main.o
 .debug_macro   0x000000000000145f       0x10 build/main.o
 .debug_macro   0x000000000000146f       0x52 build/main.o
 .debug_macro   0x00000000000014c1       0xd5 build/main.o
 .debug_macro   0x0000000000001596       0x1c build/main.o
 .debug_macro   0x00000000000015b2       0x3d build/main.o
 .debug_macro   0x00000000000015ef       0x16 build/main.o
 .debug_macro   0x0000000000001605      0x16f build/main.o
 .debug_macro   0x0000000000001774      0x103 build/main.o
 .debug_macro   0x0000000000001877      0x1df build/main.o
 .debug_macro   0x0000000000001a56     0x4c43 build/main.o
 .debug_macro   0x0000000000006699       0x28 build/main.o
 .debug_macro   0x00000000000066c1       0x26 build/main.o
 .debug_macro   0x00000000000066e7       0x10 build/main.o
 .debug_macro   0x00000000000066f7       0x8e build/main.o
 .debug_macro   0x0000000000006785       0xb2 build/main.o
 .debug_macro   0x0000000000006837       0x3a build/main.o
 .debug_macro   0x0000000000006871      0x16f build/text.o
 .debug_macro   0x00000000000069e0      0x174 build/text.o
 .debug_macro   0x0000000000006b54       0x10 build/text.o
 .debug_macro   0x0000000000006b64       0x35 build/text.o
 .debug_macro   0x0000000000006b99       0x2e build/text.o
 .debug_macro   0x0000000000006bc7       0xac build/text.o
 .debug_macro   0x0000000000006c73       0x72 build/Font_ASCII_6x8.o
 .debug_macro   0x0000000000006ce5       0x8e build/Font_ASCII_6x8.o
 .debug_macro   0x0000000000006d73       0x51 build/Font_ASCII_6x8.o
 .debug_macro   0x0000000000006dc4       0xa9 build/lcd_MLDR187.o
 .debug_macro   0x0000000000006e6d      0x13a build/MLDR187_bkp.o
 .debug_macro   0x0000000000006fa7       0xc8 build/MLDR187_eeprom.o
 .debug_macro   0x000000000000706f       0xc8 build/MLDR187_gpio.o
 .debug_macro   0x0000000000007137       0xf6 build/MLDR187_rst_clk.o
 .debug_macro   0x000000000000722d       0x20 build/MLDR187_rst_clk.o
 .debug_macro   0x000000000000724d       0xfc build/MLDR187_uart.o
 .debug_macro   0x0000000000007349       0x10 build/MLDR187_uart.o
 .debug_macro   0x0000000000007359       0x8e build/MLDR187_uart.o

.debug_line     0x0000000000000000     0x70f0
 .debug_line    0x0000000000000000      0x903 build/main.o
 .debug_line    0x0000000000000903      0x7bc build/text.o
 .debug_line    0x00000000000010bf      0x1d8 build/Font_ASCII_6x8.o
 .debug_line    0x0000000000001297      0x784 build/lcd_MLDR187.o
 .debug_line    0x0000000000001a1b     0x1770 build/MLDR187_bkp.o
 .debug_line    0x000000000000318b      0xdb1 build/MLDR187_eeprom.o
 .debug_line    0x0000000000003f3c      0x5e6 build/MLDR187_gpio.o
 .debug_line    0x0000000000004522     0x15c2 build/MLDR187_rst_clk.o
 .debug_line    0x0000000000005ae4     0x108c build/MLDR187_uart.o
 .debug_line    0x0000000000006b70      0x580 build/startup_MLDR187.o

.debug_str      0x0000000000000000    0x2a5a9
 .debug_str     0x0000000000000000    0x266b1 build/main.o
                                      0x268da (size before relaxing)
 .debug_str     0x00000000000266b1      0x108 build/text.o
                                      0x247e2 (size before relaxing)
 .debug_str     0x00000000000267b9       0x29 build/Font_ASCII_6x8.o
                                      0x2146c (size before relaxing)
 .debug_str     0x00000000000267e2      0x149 build/lcd_MLDR187.o
                                      0x220ad (size before relaxing)
 .debug_str     0x000000000002692b     0x10bf build/MLDR187_bkp.o
                                      0x22b02 (size before relaxing)
 .debug_str     0x00000000000279ea      0x368 build/MLDR187_eeprom.o
                                      0x21b68 (size before relaxing)
 .debug_str     0x0000000000027d52      0x65a build/MLDR187_gpio.o
                                      0x221ce (size before relaxing)
 .debug_str     0x00000000000283ac      0xfa1 build/MLDR187_rst_clk.o
                                      0x22d3e (size before relaxing)
 .debug_str     0x000000000002934d     0x122e build/MLDR187_uart.o
                                      0x2338c (size before relaxing)
 .debug_str     0x000000000002a57b       0x2e build/startup_MLDR187.o
                                         0x55 (size before relaxing)

.comment        0x0000000000000000       0x33
 .comment       0x0000000000000000       0x33 build/main.o
                                         0x34 (size before relaxing)
 .comment       0x0000000000000033       0x34 build/text.o
 .comment       0x0000000000000033       0x34 build/Font_ASCII_6x8.o
 .comment       0x0000000000000033       0x34 build/lcd_MLDR187.o
 .comment       0x0000000000000033       0x34 build/MLDR187_bkp.o
 .comment       0x0000000000000033       0x34 build/MLDR187_eeprom.o
 .comment       0x0000000000000033       0x34 build/MLDR187_gpio.o
 .comment       0x0000000000000033       0x34 build/MLDR187_rst_clk.o
 .comment       0x0000000000000033       0x34 build/MLDR187_uart.o

.debug_frame    0x0000000000000000     0x11f4
 .debug_frame   0x0000000000000000      0x168 build/main.o
 .debug_frame   0x0000000000000168       0xb0 build/text.o
 .debug_frame   0x0000000000000218      0x214 build/lcd_MLDR187.o
 .debug_frame   0x000000000000042c      0x540 build/MLDR187_bkp.o
 .debug_frame   0x000000000000096c      0x18c build/MLDR187_eeprom.o
 .debug_frame   0x0000000000000af8      0x15c build/MLDR187_gpio.o
 .debug_frame   0x0000000000000c54      0x18c build/MLDR187_rst_clk.o
 .debug_frame   0x0000000000000de0      0x3d8 build/MLDR187_uart.o
 .debug_frame   0x00000000000011b8       0x3c c:/program files/toolchain/xpack-riscv-none-embed-gcc-10.2.0-1.1/bin/../lib/gcc/riscv-none-embed/10.2.0/../../../../riscv-none-embed/lib/rv32imc/ilp32\libg_nano.a(lib_a-init.o)
